ARM GAS  /tmp/ccaw1hg7.s 			page 1


   1              		.syntax unified
   2              		.cpu cortex-m3
   3              		.fpu softvfp
   4              		.eabi_attribute 20, 1
   5              		.eabi_attribute 21, 1
   6              		.eabi_attribute 23, 3
   7              		.eabi_attribute 24, 1
   8              		.eabi_attribute 25, 1
   9              		.eabi_attribute 26, 1
  10              		.eabi_attribute 30, 1
  11              		.eabi_attribute 34, 1
  12              		.eabi_attribute 18, 4
  13              		.thumb
  14              		.file	"systick.c"
  15              		.text
  16              	.Ltext0:
  17              		.cfi_sections	.debug_frame
  18              		.section	.text.delay_config,"ax",%progbits
  19              		.align	2
  20              		.global	delay_config
  21              		.thumb
  22              		.thumb_func
  24              	delay_config:
  25              	.LFB29:
  26              		.file 1 "DRIVER/src/systick.c"
   1:DRIVER/src/systick.c **** #include "systick.h"
   2:DRIVER/src/systick.c **** 
   3:DRIVER/src/systick.c **** __IO uint32_t delay_num;
   4:DRIVER/src/systick.c **** 
   5:DRIVER/src/systick.c **** void delay_config(void)
   6:DRIVER/src/systick.c **** {
  27              		.loc 1 6 0
  28              		.cfi_startproc
  29              		@ args = 0, pretend = 0, frame = 0
  30              		@ frame_needed = 0, uses_anonymous_args = 0
  31              		@ link register save eliminated.
  32              	.LVL0:
  33              	.LBB8:
  34              	.LBB9:
  35              		.file 2 "CMSIS/CM3/CoreSupport/core_cm3.h"
   1:CMSIS/CM3/CoreSupport/core_cm3.h **** /**************************************************************************//**
   2:CMSIS/CM3/CoreSupport/core_cm3.h ****  * @file     core_cm3.h
   3:CMSIS/CM3/CoreSupport/core_cm3.h ****  * @brief    CMSIS Cortex-M3 Core Peripheral Access Layer Header File
   4:CMSIS/CM3/CoreSupport/core_cm3.h ****  * @version  V1.30
   5:CMSIS/CM3/CoreSupport/core_cm3.h ****  * @date     30. October 2009
   6:CMSIS/CM3/CoreSupport/core_cm3.h ****  *
   7:CMSIS/CM3/CoreSupport/core_cm3.h ****  * @note
   8:CMSIS/CM3/CoreSupport/core_cm3.h ****  * Copyright (C) 2009 ARM Limited. All rights reserved.
   9:CMSIS/CM3/CoreSupport/core_cm3.h ****  *
  10:CMSIS/CM3/CoreSupport/core_cm3.h ****  * @par
  11:CMSIS/CM3/CoreSupport/core_cm3.h ****  * ARM Limited (ARM) is supplying this software for use with Cortex-M 
  12:CMSIS/CM3/CoreSupport/core_cm3.h ****  * processor based microcontrollers.  This file can be freely distributed 
  13:CMSIS/CM3/CoreSupport/core_cm3.h ****  * within development tools that are supporting such ARM based processors. 
  14:CMSIS/CM3/CoreSupport/core_cm3.h ****  *
  15:CMSIS/CM3/CoreSupport/core_cm3.h ****  * @par
  16:CMSIS/CM3/CoreSupport/core_cm3.h ****  * THIS SOFTWARE IS PROVIDED "AS IS".  NO WARRANTIES, WHETHER EXPRESS, IMPLIED
  17:CMSIS/CM3/CoreSupport/core_cm3.h ****  * OR STATUTORY, INCLUDING, BUT NOT LIMITED TO, IMPLIED WARRANTIES OF
ARM GAS  /tmp/ccaw1hg7.s 			page 2


  18:CMSIS/CM3/CoreSupport/core_cm3.h ****  * MERCHANTABILITY AND FITNESS FOR A PARTICULAR PURPOSE APPLY TO THIS SOFTWARE.
  19:CMSIS/CM3/CoreSupport/core_cm3.h ****  * ARM SHALL NOT, IN ANY CIRCUMSTANCES, BE LIABLE FOR SPECIAL, INCIDENTAL, OR
  20:CMSIS/CM3/CoreSupport/core_cm3.h ****  * CONSEQUENTIAL DAMAGES, FOR ANY REASON WHATSOEVER.
  21:CMSIS/CM3/CoreSupport/core_cm3.h ****  *
  22:CMSIS/CM3/CoreSupport/core_cm3.h ****  ******************************************************************************/
  23:CMSIS/CM3/CoreSupport/core_cm3.h **** 
  24:CMSIS/CM3/CoreSupport/core_cm3.h **** #ifndef __CM3_CORE_H__
  25:CMSIS/CM3/CoreSupport/core_cm3.h **** #define __CM3_CORE_H__
  26:CMSIS/CM3/CoreSupport/core_cm3.h **** 
  27:CMSIS/CM3/CoreSupport/core_cm3.h **** /** @addtogroup CMSIS_CM3_core_LintCinfiguration CMSIS CM3 Core Lint Configuration
  28:CMSIS/CM3/CoreSupport/core_cm3.h ****  *
  29:CMSIS/CM3/CoreSupport/core_cm3.h ****  * List of Lint messages which will be suppressed and not shown:
  30:CMSIS/CM3/CoreSupport/core_cm3.h ****  *   - Error 10: \n
  31:CMSIS/CM3/CoreSupport/core_cm3.h ****  *     register uint32_t __regBasePri         __asm("basepri"); \n
  32:CMSIS/CM3/CoreSupport/core_cm3.h ****  *     Error 10: Expecting ';'
  33:CMSIS/CM3/CoreSupport/core_cm3.h ****  * .
  34:CMSIS/CM3/CoreSupport/core_cm3.h ****  *   - Error 530: \n
  35:CMSIS/CM3/CoreSupport/core_cm3.h ****  *     return(__regBasePri); \n
  36:CMSIS/CM3/CoreSupport/core_cm3.h ****  *     Warning 530: Symbol '__regBasePri' (line 264) not initialized
  37:CMSIS/CM3/CoreSupport/core_cm3.h ****  * . 
  38:CMSIS/CM3/CoreSupport/core_cm3.h ****  *   - Error 550: \n
  39:CMSIS/CM3/CoreSupport/core_cm3.h ****  *     __regBasePri = (basePri & 0x1ff); \n
  40:CMSIS/CM3/CoreSupport/core_cm3.h ****  *     Warning 550: Symbol '__regBasePri' (line 271) not accessed
  41:CMSIS/CM3/CoreSupport/core_cm3.h ****  * .
  42:CMSIS/CM3/CoreSupport/core_cm3.h ****  *   - Error 754: \n
  43:CMSIS/CM3/CoreSupport/core_cm3.h ****  *     uint32_t RESERVED0[24]; \n
  44:CMSIS/CM3/CoreSupport/core_cm3.h ****  *     Info 754: local structure member '<some, not used in the HAL>' (line 109, file ./cm3_core.h)
  45:CMSIS/CM3/CoreSupport/core_cm3.h ****  * .
  46:CMSIS/CM3/CoreSupport/core_cm3.h ****  *   - Error 750: \n
  47:CMSIS/CM3/CoreSupport/core_cm3.h ****  *     #define __CM3_CORE_H__ \n
  48:CMSIS/CM3/CoreSupport/core_cm3.h ****  *     Info 750: local macro '__CM3_CORE_H__' (line 43, file./cm3_core.h) not referenced
  49:CMSIS/CM3/CoreSupport/core_cm3.h ****  * .
  50:CMSIS/CM3/CoreSupport/core_cm3.h ****  *   - Error 528: \n
  51:CMSIS/CM3/CoreSupport/core_cm3.h ****  *     static __INLINE void NVIC_DisableIRQ(uint32_t IRQn) \n
  52:CMSIS/CM3/CoreSupport/core_cm3.h ****  *     Warning 528: Symbol 'NVIC_DisableIRQ(unsigned int)' (line 419, file ./cm3_core.h) not refere
  53:CMSIS/CM3/CoreSupport/core_cm3.h ****  * .
  54:CMSIS/CM3/CoreSupport/core_cm3.h ****  *   - Error 751: \n
  55:CMSIS/CM3/CoreSupport/core_cm3.h ****  *     } InterruptType_Type; \n
  56:CMSIS/CM3/CoreSupport/core_cm3.h ****  *     Info 751: local typedef 'InterruptType_Type' (line 170, file ./cm3_core.h) not referenced
  57:CMSIS/CM3/CoreSupport/core_cm3.h ****  * .
  58:CMSIS/CM3/CoreSupport/core_cm3.h ****  * Note:  To re-enable a Message, insert a space before 'lint' *
  59:CMSIS/CM3/CoreSupport/core_cm3.h ****  *
  60:CMSIS/CM3/CoreSupport/core_cm3.h ****  */
  61:CMSIS/CM3/CoreSupport/core_cm3.h **** 
  62:CMSIS/CM3/CoreSupport/core_cm3.h **** /*lint -save */
  63:CMSIS/CM3/CoreSupport/core_cm3.h **** /*lint -e10  */
  64:CMSIS/CM3/CoreSupport/core_cm3.h **** /*lint -e530 */
  65:CMSIS/CM3/CoreSupport/core_cm3.h **** /*lint -e550 */
  66:CMSIS/CM3/CoreSupport/core_cm3.h **** /*lint -e754 */
  67:CMSIS/CM3/CoreSupport/core_cm3.h **** /*lint -e750 */
  68:CMSIS/CM3/CoreSupport/core_cm3.h **** /*lint -e528 */
  69:CMSIS/CM3/CoreSupport/core_cm3.h **** /*lint -e751 */
  70:CMSIS/CM3/CoreSupport/core_cm3.h **** 
  71:CMSIS/CM3/CoreSupport/core_cm3.h **** 
  72:CMSIS/CM3/CoreSupport/core_cm3.h **** /** @addtogroup CMSIS_CM3_core_definitions CM3 Core Definitions
  73:CMSIS/CM3/CoreSupport/core_cm3.h ****   This file defines all structures and symbols for CMSIS core:
  74:CMSIS/CM3/CoreSupport/core_cm3.h ****     - CMSIS version number
ARM GAS  /tmp/ccaw1hg7.s 			page 3


  75:CMSIS/CM3/CoreSupport/core_cm3.h ****     - Cortex-M core registers and bitfields
  76:CMSIS/CM3/CoreSupport/core_cm3.h ****     - Cortex-M core peripheral base address
  77:CMSIS/CM3/CoreSupport/core_cm3.h ****   @{
  78:CMSIS/CM3/CoreSupport/core_cm3.h ****  */
  79:CMSIS/CM3/CoreSupport/core_cm3.h **** 
  80:CMSIS/CM3/CoreSupport/core_cm3.h **** #ifdef __cplusplus
  81:CMSIS/CM3/CoreSupport/core_cm3.h ****  extern "C" {
  82:CMSIS/CM3/CoreSupport/core_cm3.h **** #endif 
  83:CMSIS/CM3/CoreSupport/core_cm3.h **** 
  84:CMSIS/CM3/CoreSupport/core_cm3.h **** #define __CM3_CMSIS_VERSION_MAIN  (0x01)                                                       /*!<
  85:CMSIS/CM3/CoreSupport/core_cm3.h **** #define __CM3_CMSIS_VERSION_SUB   (0x30)                                                       /*!<
  86:CMSIS/CM3/CoreSupport/core_cm3.h **** #define __CM3_CMSIS_VERSION       ((__CM3_CMSIS_VERSION_MAIN << 16) | __CM3_CMSIS_VERSION_SUB) /*!<
  87:CMSIS/CM3/CoreSupport/core_cm3.h **** 
  88:CMSIS/CM3/CoreSupport/core_cm3.h **** #define __CORTEX_M                (0x03)                                                       /*!<
  89:CMSIS/CM3/CoreSupport/core_cm3.h **** 
  90:CMSIS/CM3/CoreSupport/core_cm3.h **** #include <stdint.h>                           /* Include standard types */
  91:CMSIS/CM3/CoreSupport/core_cm3.h **** 
  92:CMSIS/CM3/CoreSupport/core_cm3.h **** #if defined (__ICCARM__)
  93:CMSIS/CM3/CoreSupport/core_cm3.h ****   #include <intrinsics.h>                     /* IAR Intrinsics   */
  94:CMSIS/CM3/CoreSupport/core_cm3.h **** #endif
  95:CMSIS/CM3/CoreSupport/core_cm3.h **** 
  96:CMSIS/CM3/CoreSupport/core_cm3.h **** 
  97:CMSIS/CM3/CoreSupport/core_cm3.h **** #ifndef __NVIC_PRIO_BITS
  98:CMSIS/CM3/CoreSupport/core_cm3.h ****   #define __NVIC_PRIO_BITS    4               /*!< standard definition for NVIC Priority Bits */
  99:CMSIS/CM3/CoreSupport/core_cm3.h **** #endif
 100:CMSIS/CM3/CoreSupport/core_cm3.h **** 
 101:CMSIS/CM3/CoreSupport/core_cm3.h **** 
 102:CMSIS/CM3/CoreSupport/core_cm3.h **** 
 103:CMSIS/CM3/CoreSupport/core_cm3.h **** 
 104:CMSIS/CM3/CoreSupport/core_cm3.h **** /**
 105:CMSIS/CM3/CoreSupport/core_cm3.h ****  * IO definitions
 106:CMSIS/CM3/CoreSupport/core_cm3.h ****  *
 107:CMSIS/CM3/CoreSupport/core_cm3.h ****  * define access restrictions to peripheral registers
 108:CMSIS/CM3/CoreSupport/core_cm3.h ****  */
 109:CMSIS/CM3/CoreSupport/core_cm3.h **** 
 110:CMSIS/CM3/CoreSupport/core_cm3.h **** #ifdef __cplusplus
 111:CMSIS/CM3/CoreSupport/core_cm3.h ****   #define     __I     volatile                /*!< defines 'read only' permissions      */
 112:CMSIS/CM3/CoreSupport/core_cm3.h **** #else
 113:CMSIS/CM3/CoreSupport/core_cm3.h ****   #define     __I     volatile const          /*!< defines 'read only' permissions      */
 114:CMSIS/CM3/CoreSupport/core_cm3.h **** #endif
 115:CMSIS/CM3/CoreSupport/core_cm3.h **** #define     __O     volatile                  /*!< defines 'write only' permissions     */
 116:CMSIS/CM3/CoreSupport/core_cm3.h **** #define     __IO    volatile                  /*!< defines 'read / write' permissions   */
 117:CMSIS/CM3/CoreSupport/core_cm3.h **** 
 118:CMSIS/CM3/CoreSupport/core_cm3.h **** 
 119:CMSIS/CM3/CoreSupport/core_cm3.h **** 
 120:CMSIS/CM3/CoreSupport/core_cm3.h **** /*******************************************************************************
 121:CMSIS/CM3/CoreSupport/core_cm3.h ****  *                 Register Abstraction
 122:CMSIS/CM3/CoreSupport/core_cm3.h ****  ******************************************************************************/
 123:CMSIS/CM3/CoreSupport/core_cm3.h **** /** @addtogroup CMSIS_CM3_core_register CMSIS CM3 Core Register
 124:CMSIS/CM3/CoreSupport/core_cm3.h ****  @{
 125:CMSIS/CM3/CoreSupport/core_cm3.h **** */
 126:CMSIS/CM3/CoreSupport/core_cm3.h **** 
 127:CMSIS/CM3/CoreSupport/core_cm3.h **** 
 128:CMSIS/CM3/CoreSupport/core_cm3.h **** /** @addtogroup CMSIS_CM3_NVIC CMSIS CM3 NVIC
 129:CMSIS/CM3/CoreSupport/core_cm3.h ****   memory mapped structure for Nested Vectored Interrupt Controller (NVIC)
 130:CMSIS/CM3/CoreSupport/core_cm3.h ****   @{
 131:CMSIS/CM3/CoreSupport/core_cm3.h ****  */
ARM GAS  /tmp/ccaw1hg7.s 			page 4


 132:CMSIS/CM3/CoreSupport/core_cm3.h **** typedef struct
 133:CMSIS/CM3/CoreSupport/core_cm3.h **** {
 134:CMSIS/CM3/CoreSupport/core_cm3.h ****   __IO uint32_t ISER[8];                      /*!< Offset: 0x000  Interrupt Set Enable Register    
 135:CMSIS/CM3/CoreSupport/core_cm3.h ****        uint32_t RESERVED0[24];                                   
 136:CMSIS/CM3/CoreSupport/core_cm3.h ****   __IO uint32_t ICER[8];                      /*!< Offset: 0x080  Interrupt Clear Enable Register  
 137:CMSIS/CM3/CoreSupport/core_cm3.h ****        uint32_t RSERVED1[24];                                    
 138:CMSIS/CM3/CoreSupport/core_cm3.h ****   __IO uint32_t ISPR[8];                      /*!< Offset: 0x100  Interrupt Set Pending Register   
 139:CMSIS/CM3/CoreSupport/core_cm3.h ****        uint32_t RESERVED2[24];                                   
 140:CMSIS/CM3/CoreSupport/core_cm3.h ****   __IO uint32_t ICPR[8];                      /*!< Offset: 0x180  Interrupt Clear Pending Register 
 141:CMSIS/CM3/CoreSupport/core_cm3.h ****        uint32_t RESERVED3[24];                                   
 142:CMSIS/CM3/CoreSupport/core_cm3.h ****   __IO uint32_t IABR[8];                      /*!< Offset: 0x200  Interrupt Active bit Register    
 143:CMSIS/CM3/CoreSupport/core_cm3.h ****        uint32_t RESERVED4[56];                                   
 144:CMSIS/CM3/CoreSupport/core_cm3.h ****   __IO uint8_t  IP[240];                      /*!< Offset: 0x300  Interrupt Priority Register (8Bit
 145:CMSIS/CM3/CoreSupport/core_cm3.h ****        uint32_t RESERVED5[644];                                  
 146:CMSIS/CM3/CoreSupport/core_cm3.h ****   __O  uint32_t STIR;                         /*!< Offset: 0xE00  Software Trigger Interrupt Regist
 147:CMSIS/CM3/CoreSupport/core_cm3.h **** }  NVIC_Type;                                               
 148:CMSIS/CM3/CoreSupport/core_cm3.h **** /*@}*/ /* end of group CMSIS_CM3_NVIC */
 149:CMSIS/CM3/CoreSupport/core_cm3.h **** 
 150:CMSIS/CM3/CoreSupport/core_cm3.h **** 
 151:CMSIS/CM3/CoreSupport/core_cm3.h **** /** @addtogroup CMSIS_CM3_SCB CMSIS CM3 SCB
 152:CMSIS/CM3/CoreSupport/core_cm3.h ****   memory mapped structure for System Control Block (SCB)
 153:CMSIS/CM3/CoreSupport/core_cm3.h ****   @{
 154:CMSIS/CM3/CoreSupport/core_cm3.h ****  */
 155:CMSIS/CM3/CoreSupport/core_cm3.h **** typedef struct
 156:CMSIS/CM3/CoreSupport/core_cm3.h **** {
 157:CMSIS/CM3/CoreSupport/core_cm3.h ****   __I  uint32_t CPUID;                        /*!< Offset: 0x00  CPU ID Base Register              
 158:CMSIS/CM3/CoreSupport/core_cm3.h ****   __IO uint32_t ICSR;                         /*!< Offset: 0x04  Interrupt Control State Register  
 159:CMSIS/CM3/CoreSupport/core_cm3.h ****   __IO uint32_t VTOR;                         /*!< Offset: 0x08  Vector Table Offset Register      
 160:CMSIS/CM3/CoreSupport/core_cm3.h ****   __IO uint32_t AIRCR;                        /*!< Offset: 0x0C  Application Interrupt / Reset Cont
 161:CMSIS/CM3/CoreSupport/core_cm3.h ****   __IO uint32_t SCR;                          /*!< Offset: 0x10  System Control Register           
 162:CMSIS/CM3/CoreSupport/core_cm3.h ****   __IO uint32_t CCR;                          /*!< Offset: 0x14  Configuration Control Register    
 163:CMSIS/CM3/CoreSupport/core_cm3.h ****   __IO uint8_t  SHP[12];                      /*!< Offset: 0x18  System Handlers Priority Registers
 164:CMSIS/CM3/CoreSupport/core_cm3.h ****   __IO uint32_t SHCSR;                        /*!< Offset: 0x24  System Handler Control and State R
 165:CMSIS/CM3/CoreSupport/core_cm3.h ****   __IO uint32_t CFSR;                         /*!< Offset: 0x28  Configurable Fault Status Register
 166:CMSIS/CM3/CoreSupport/core_cm3.h ****   __IO uint32_t HFSR;                         /*!< Offset: 0x2C  Hard Fault Status Register        
 167:CMSIS/CM3/CoreSupport/core_cm3.h ****   __IO uint32_t DFSR;                         /*!< Offset: 0x30  Debug Fault Status Register       
 168:CMSIS/CM3/CoreSupport/core_cm3.h ****   __IO uint32_t MMFAR;                        /*!< Offset: 0x34  Mem Manage Address Register       
 169:CMSIS/CM3/CoreSupport/core_cm3.h ****   __IO uint32_t BFAR;                         /*!< Offset: 0x38  Bus Fault Address Register        
 170:CMSIS/CM3/CoreSupport/core_cm3.h ****   __IO uint32_t AFSR;                         /*!< Offset: 0x3C  Auxiliary Fault Status Register   
 171:CMSIS/CM3/CoreSupport/core_cm3.h ****   __I  uint32_t PFR[2];                       /*!< Offset: 0x40  Processor Feature Register        
 172:CMSIS/CM3/CoreSupport/core_cm3.h ****   __I  uint32_t DFR;                          /*!< Offset: 0x48  Debug Feature Register            
 173:CMSIS/CM3/CoreSupport/core_cm3.h ****   __I  uint32_t ADR;                          /*!< Offset: 0x4C  Auxiliary Feature Register        
 174:CMSIS/CM3/CoreSupport/core_cm3.h ****   __I  uint32_t MMFR[4];                      /*!< Offset: 0x50  Memory Model Feature Register     
 175:CMSIS/CM3/CoreSupport/core_cm3.h ****   __I  uint32_t ISAR[5];                      /*!< Offset: 0x60  ISA Feature Register              
 176:CMSIS/CM3/CoreSupport/core_cm3.h **** } SCB_Type;                                                
 177:CMSIS/CM3/CoreSupport/core_cm3.h **** 
 178:CMSIS/CM3/CoreSupport/core_cm3.h **** /* SCB CPUID Register Definitions */
 179:CMSIS/CM3/CoreSupport/core_cm3.h **** #define SCB_CPUID_IMPLEMENTER_Pos          24                                             /*!< SCB 
 180:CMSIS/CM3/CoreSupport/core_cm3.h **** #define SCB_CPUID_IMPLEMENTER_Msk          (0xFFul << SCB_CPUID_IMPLEMENTER_Pos)          /*!< SCB 
 181:CMSIS/CM3/CoreSupport/core_cm3.h **** 
 182:CMSIS/CM3/CoreSupport/core_cm3.h **** #define SCB_CPUID_VARIANT_Pos              20                                             /*!< SCB 
 183:CMSIS/CM3/CoreSupport/core_cm3.h **** #define SCB_CPUID_VARIANT_Msk              (0xFul << SCB_CPUID_VARIANT_Pos)               /*!< SCB 
 184:CMSIS/CM3/CoreSupport/core_cm3.h **** 
 185:CMSIS/CM3/CoreSupport/core_cm3.h **** #define SCB_CPUID_PARTNO_Pos                4                                             /*!< SCB 
 186:CMSIS/CM3/CoreSupport/core_cm3.h **** #define SCB_CPUID_PARTNO_Msk               (0xFFFul << SCB_CPUID_PARTNO_Pos)              /*!< SCB 
 187:CMSIS/CM3/CoreSupport/core_cm3.h **** 
 188:CMSIS/CM3/CoreSupport/core_cm3.h **** #define SCB_CPUID_REVISION_Pos              0                                             /*!< SCB 
ARM GAS  /tmp/ccaw1hg7.s 			page 5


 189:CMSIS/CM3/CoreSupport/core_cm3.h **** #define SCB_CPUID_REVISION_Msk             (0xFul << SCB_CPUID_REVISION_Pos)              /*!< SCB 
 190:CMSIS/CM3/CoreSupport/core_cm3.h **** 
 191:CMSIS/CM3/CoreSupport/core_cm3.h **** /* SCB Interrupt Control State Register Definitions */
 192:CMSIS/CM3/CoreSupport/core_cm3.h **** #define SCB_ICSR_NMIPENDSET_Pos            31                                             /*!< SCB 
 193:CMSIS/CM3/CoreSupport/core_cm3.h **** #define SCB_ICSR_NMIPENDSET_Msk            (1ul << SCB_ICSR_NMIPENDSET_Pos)               /*!< SCB 
 194:CMSIS/CM3/CoreSupport/core_cm3.h **** 
 195:CMSIS/CM3/CoreSupport/core_cm3.h **** #define SCB_ICSR_PENDSVSET_Pos             28                                             /*!< SCB 
 196:CMSIS/CM3/CoreSupport/core_cm3.h **** #define SCB_ICSR_PENDSVSET_Msk             (1ul << SCB_ICSR_PENDSVSET_Pos)                /*!< SCB 
 197:CMSIS/CM3/CoreSupport/core_cm3.h **** 
 198:CMSIS/CM3/CoreSupport/core_cm3.h **** #define SCB_ICSR_PENDSVCLR_Pos             27                                             /*!< SCB 
 199:CMSIS/CM3/CoreSupport/core_cm3.h **** #define SCB_ICSR_PENDSVCLR_Msk             (1ul << SCB_ICSR_PENDSVCLR_Pos)                /*!< SCB 
 200:CMSIS/CM3/CoreSupport/core_cm3.h **** 
 201:CMSIS/CM3/CoreSupport/core_cm3.h **** #define SCB_ICSR_PENDSTSET_Pos             26                                             /*!< SCB 
 202:CMSIS/CM3/CoreSupport/core_cm3.h **** #define SCB_ICSR_PENDSTSET_Msk             (1ul << SCB_ICSR_PENDSTSET_Pos)                /*!< SCB 
 203:CMSIS/CM3/CoreSupport/core_cm3.h **** 
 204:CMSIS/CM3/CoreSupport/core_cm3.h **** #define SCB_ICSR_PENDSTCLR_Pos             25                                             /*!< SCB 
 205:CMSIS/CM3/CoreSupport/core_cm3.h **** #define SCB_ICSR_PENDSTCLR_Msk             (1ul << SCB_ICSR_PENDSTCLR_Pos)                /*!< SCB 
 206:CMSIS/CM3/CoreSupport/core_cm3.h **** 
 207:CMSIS/CM3/CoreSupport/core_cm3.h **** #define SCB_ICSR_ISRPREEMPT_Pos            23                                             /*!< SCB 
 208:CMSIS/CM3/CoreSupport/core_cm3.h **** #define SCB_ICSR_ISRPREEMPT_Msk            (1ul << SCB_ICSR_ISRPREEMPT_Pos)               /*!< SCB 
 209:CMSIS/CM3/CoreSupport/core_cm3.h **** 
 210:CMSIS/CM3/CoreSupport/core_cm3.h **** #define SCB_ICSR_ISRPENDING_Pos            22                                             /*!< SCB 
 211:CMSIS/CM3/CoreSupport/core_cm3.h **** #define SCB_ICSR_ISRPENDING_Msk            (1ul << SCB_ICSR_ISRPENDING_Pos)               /*!< SCB 
 212:CMSIS/CM3/CoreSupport/core_cm3.h **** 
 213:CMSIS/CM3/CoreSupport/core_cm3.h **** #define SCB_ICSR_VECTPENDING_Pos           12                                             /*!< SCB 
 214:CMSIS/CM3/CoreSupport/core_cm3.h **** #define SCB_ICSR_VECTPENDING_Msk           (0x1FFul << SCB_ICSR_VECTPENDING_Pos)          /*!< SCB 
 215:CMSIS/CM3/CoreSupport/core_cm3.h **** 
 216:CMSIS/CM3/CoreSupport/core_cm3.h **** #define SCB_ICSR_RETTOBASE_Pos             11                                             /*!< SCB 
 217:CMSIS/CM3/CoreSupport/core_cm3.h **** #define SCB_ICSR_RETTOBASE_Msk             (1ul << SCB_ICSR_RETTOBASE_Pos)                /*!< SCB 
 218:CMSIS/CM3/CoreSupport/core_cm3.h **** 
 219:CMSIS/CM3/CoreSupport/core_cm3.h **** #define SCB_ICSR_VECTACTIVE_Pos             0                                             /*!< SCB 
 220:CMSIS/CM3/CoreSupport/core_cm3.h **** #define SCB_ICSR_VECTACTIVE_Msk            (0x1FFul << SCB_ICSR_VECTACTIVE_Pos)           /*!< SCB 
 221:CMSIS/CM3/CoreSupport/core_cm3.h **** 
 222:CMSIS/CM3/CoreSupport/core_cm3.h **** /* SCB Interrupt Control State Register Definitions */
 223:CMSIS/CM3/CoreSupport/core_cm3.h **** #define SCB_VTOR_TBLBASE_Pos               29                                             /*!< SCB 
 224:CMSIS/CM3/CoreSupport/core_cm3.h **** #define SCB_VTOR_TBLBASE_Msk               (0x1FFul << SCB_VTOR_TBLBASE_Pos)              /*!< SCB 
 225:CMSIS/CM3/CoreSupport/core_cm3.h **** 
 226:CMSIS/CM3/CoreSupport/core_cm3.h **** #define SCB_VTOR_TBLOFF_Pos                 7                                             /*!< SCB 
 227:CMSIS/CM3/CoreSupport/core_cm3.h **** #define SCB_VTOR_TBLOFF_Msk                (0x3FFFFFul << SCB_VTOR_TBLOFF_Pos)            /*!< SCB 
 228:CMSIS/CM3/CoreSupport/core_cm3.h **** 
 229:CMSIS/CM3/CoreSupport/core_cm3.h **** /* SCB Application Interrupt and Reset Control Register Definitions */
 230:CMSIS/CM3/CoreSupport/core_cm3.h **** #define SCB_AIRCR_VECTKEY_Pos              16                                             /*!< SCB 
 231:CMSIS/CM3/CoreSupport/core_cm3.h **** #define SCB_AIRCR_VECTKEY_Msk              (0xFFFFul << SCB_AIRCR_VECTKEY_Pos)            /*!< SCB 
 232:CMSIS/CM3/CoreSupport/core_cm3.h **** 
 233:CMSIS/CM3/CoreSupport/core_cm3.h **** #define SCB_AIRCR_VECTKEYSTAT_Pos          16                                             /*!< SCB 
 234:CMSIS/CM3/CoreSupport/core_cm3.h **** #define SCB_AIRCR_VECTKEYSTAT_Msk          (0xFFFFul << SCB_AIRCR_VECTKEYSTAT_Pos)        /*!< SCB 
 235:CMSIS/CM3/CoreSupport/core_cm3.h **** 
 236:CMSIS/CM3/CoreSupport/core_cm3.h **** #define SCB_AIRCR_ENDIANESS_Pos            15                                             /*!< SCB 
 237:CMSIS/CM3/CoreSupport/core_cm3.h **** #define SCB_AIRCR_ENDIANESS_Msk            (1ul << SCB_AIRCR_ENDIANESS_Pos)               /*!< SCB 
 238:CMSIS/CM3/CoreSupport/core_cm3.h **** 
 239:CMSIS/CM3/CoreSupport/core_cm3.h **** #define SCB_AIRCR_PRIGROUP_Pos              8                                             /*!< SCB 
 240:CMSIS/CM3/CoreSupport/core_cm3.h **** #define SCB_AIRCR_PRIGROUP_Msk             (7ul << SCB_AIRCR_PRIGROUP_Pos)                /*!< SCB 
 241:CMSIS/CM3/CoreSupport/core_cm3.h **** 
 242:CMSIS/CM3/CoreSupport/core_cm3.h **** #define SCB_AIRCR_SYSRESETREQ_Pos           2                                             /*!< SCB 
 243:CMSIS/CM3/CoreSupport/core_cm3.h **** #define SCB_AIRCR_SYSRESETREQ_Msk          (1ul << SCB_AIRCR_SYSRESETREQ_Pos)             /*!< SCB 
 244:CMSIS/CM3/CoreSupport/core_cm3.h **** 
 245:CMSIS/CM3/CoreSupport/core_cm3.h **** #define SCB_AIRCR_VECTCLRACTIVE_Pos         1                                             /*!< SCB 
ARM GAS  /tmp/ccaw1hg7.s 			page 6


 246:CMSIS/CM3/CoreSupport/core_cm3.h **** #define SCB_AIRCR_VECTCLRACTIVE_Msk        (1ul << SCB_AIRCR_VECTCLRACTIVE_Pos)           /*!< SCB 
 247:CMSIS/CM3/CoreSupport/core_cm3.h **** 
 248:CMSIS/CM3/CoreSupport/core_cm3.h **** #define SCB_AIRCR_VECTRESET_Pos             0                                             /*!< SCB 
 249:CMSIS/CM3/CoreSupport/core_cm3.h **** #define SCB_AIRCR_VECTRESET_Msk            (1ul << SCB_AIRCR_VECTRESET_Pos)               /*!< SCB 
 250:CMSIS/CM3/CoreSupport/core_cm3.h **** 
 251:CMSIS/CM3/CoreSupport/core_cm3.h **** /* SCB System Control Register Definitions */
 252:CMSIS/CM3/CoreSupport/core_cm3.h **** #define SCB_SCR_SEVONPEND_Pos               4                                             /*!< SCB 
 253:CMSIS/CM3/CoreSupport/core_cm3.h **** #define SCB_SCR_SEVONPEND_Msk              (1ul << SCB_SCR_SEVONPEND_Pos)                 /*!< SCB 
 254:CMSIS/CM3/CoreSupport/core_cm3.h **** 
 255:CMSIS/CM3/CoreSupport/core_cm3.h **** #define SCB_SCR_SLEEPDEEP_Pos               2                                             /*!< SCB 
 256:CMSIS/CM3/CoreSupport/core_cm3.h **** #define SCB_SCR_SLEEPDEEP_Msk              (1ul << SCB_SCR_SLEEPDEEP_Pos)                 /*!< SCB 
 257:CMSIS/CM3/CoreSupport/core_cm3.h **** 
 258:CMSIS/CM3/CoreSupport/core_cm3.h **** #define SCB_SCR_SLEEPONEXIT_Pos             1                                             /*!< SCB 
 259:CMSIS/CM3/CoreSupport/core_cm3.h **** #define SCB_SCR_SLEEPONEXIT_Msk            (1ul << SCB_SCR_SLEEPONEXIT_Pos)               /*!< SCB 
 260:CMSIS/CM3/CoreSupport/core_cm3.h **** 
 261:CMSIS/CM3/CoreSupport/core_cm3.h **** /* SCB Configuration Control Register Definitions */
 262:CMSIS/CM3/CoreSupport/core_cm3.h **** #define SCB_CCR_STKALIGN_Pos                9                                             /*!< SCB 
 263:CMSIS/CM3/CoreSupport/core_cm3.h **** #define SCB_CCR_STKALIGN_Msk               (1ul << SCB_CCR_STKALIGN_Pos)                  /*!< SCB 
 264:CMSIS/CM3/CoreSupport/core_cm3.h **** 
 265:CMSIS/CM3/CoreSupport/core_cm3.h **** #define SCB_CCR_BFHFNMIGN_Pos               8                                             /*!< SCB 
 266:CMSIS/CM3/CoreSupport/core_cm3.h **** #define SCB_CCR_BFHFNMIGN_Msk              (1ul << SCB_CCR_BFHFNMIGN_Pos)                 /*!< SCB 
 267:CMSIS/CM3/CoreSupport/core_cm3.h **** 
 268:CMSIS/CM3/CoreSupport/core_cm3.h **** #define SCB_CCR_DIV_0_TRP_Pos               4                                             /*!< SCB 
 269:CMSIS/CM3/CoreSupport/core_cm3.h **** #define SCB_CCR_DIV_0_TRP_Msk              (1ul << SCB_CCR_DIV_0_TRP_Pos)                 /*!< SCB 
 270:CMSIS/CM3/CoreSupport/core_cm3.h **** 
 271:CMSIS/CM3/CoreSupport/core_cm3.h **** #define SCB_CCR_UNALIGN_TRP_Pos             3                                             /*!< SCB 
 272:CMSIS/CM3/CoreSupport/core_cm3.h **** #define SCB_CCR_UNALIGN_TRP_Msk            (1ul << SCB_CCR_UNALIGN_TRP_Pos)               /*!< SCB 
 273:CMSIS/CM3/CoreSupport/core_cm3.h **** 
 274:CMSIS/CM3/CoreSupport/core_cm3.h **** #define SCB_CCR_USERSETMPEND_Pos            1                                             /*!< SCB 
 275:CMSIS/CM3/CoreSupport/core_cm3.h **** #define SCB_CCR_USERSETMPEND_Msk           (1ul << SCB_CCR_USERSETMPEND_Pos)              /*!< SCB 
 276:CMSIS/CM3/CoreSupport/core_cm3.h **** 
 277:CMSIS/CM3/CoreSupport/core_cm3.h **** #define SCB_CCR_NONBASETHRDENA_Pos          0                                             /*!< SCB 
 278:CMSIS/CM3/CoreSupport/core_cm3.h **** #define SCB_CCR_NONBASETHRDENA_Msk         (1ul << SCB_CCR_NONBASETHRDENA_Pos)            /*!< SCB 
 279:CMSIS/CM3/CoreSupport/core_cm3.h **** 
 280:CMSIS/CM3/CoreSupport/core_cm3.h **** /* SCB System Handler Control and State Register Definitions */
 281:CMSIS/CM3/CoreSupport/core_cm3.h **** #define SCB_SHCSR_USGFAULTENA_Pos          18                                             /*!< SCB 
 282:CMSIS/CM3/CoreSupport/core_cm3.h **** #define SCB_SHCSR_USGFAULTENA_Msk          (1ul << SCB_SHCSR_USGFAULTENA_Pos)             /*!< SCB 
 283:CMSIS/CM3/CoreSupport/core_cm3.h **** 
 284:CMSIS/CM3/CoreSupport/core_cm3.h **** #define SCB_SHCSR_BUSFAULTENA_Pos          17                                             /*!< SCB 
 285:CMSIS/CM3/CoreSupport/core_cm3.h **** #define SCB_SHCSR_BUSFAULTENA_Msk          (1ul << SCB_SHCSR_BUSFAULTENA_Pos)             /*!< SCB 
 286:CMSIS/CM3/CoreSupport/core_cm3.h **** 
 287:CMSIS/CM3/CoreSupport/core_cm3.h **** #define SCB_SHCSR_MEMFAULTENA_Pos          16                                             /*!< SCB 
 288:CMSIS/CM3/CoreSupport/core_cm3.h **** #define SCB_SHCSR_MEMFAULTENA_Msk          (1ul << SCB_SHCSR_MEMFAULTENA_Pos)             /*!< SCB 
 289:CMSIS/CM3/CoreSupport/core_cm3.h **** 
 290:CMSIS/CM3/CoreSupport/core_cm3.h **** #define SCB_SHCSR_SVCALLPENDED_Pos         15                                             /*!< SCB 
 291:CMSIS/CM3/CoreSupport/core_cm3.h **** #define SCB_SHCSR_SVCALLPENDED_Msk         (1ul << SCB_SHCSR_SVCALLPENDED_Pos)            /*!< SCB 
 292:CMSIS/CM3/CoreSupport/core_cm3.h **** 
 293:CMSIS/CM3/CoreSupport/core_cm3.h **** #define SCB_SHCSR_BUSFAULTPENDED_Pos       14                                             /*!< SCB 
 294:CMSIS/CM3/CoreSupport/core_cm3.h **** #define SCB_SHCSR_BUSFAULTPENDED_Msk       (1ul << SCB_SHCSR_BUSFAULTPENDED_Pos)          /*!< SCB 
 295:CMSIS/CM3/CoreSupport/core_cm3.h **** 
 296:CMSIS/CM3/CoreSupport/core_cm3.h **** #define SCB_SHCSR_MEMFAULTPENDED_Pos       13                                             /*!< SCB 
 297:CMSIS/CM3/CoreSupport/core_cm3.h **** #define SCB_SHCSR_MEMFAULTPENDED_Msk       (1ul << SCB_SHCSR_MEMFAULTPENDED_Pos)          /*!< SCB 
 298:CMSIS/CM3/CoreSupport/core_cm3.h **** 
 299:CMSIS/CM3/CoreSupport/core_cm3.h **** #define SCB_SHCSR_USGFAULTPENDED_Pos       12                                             /*!< SCB 
 300:CMSIS/CM3/CoreSupport/core_cm3.h **** #define SCB_SHCSR_USGFAULTPENDED_Msk       (1ul << SCB_SHCSR_USGFAULTPENDED_Pos)          /*!< SCB 
 301:CMSIS/CM3/CoreSupport/core_cm3.h **** 
 302:CMSIS/CM3/CoreSupport/core_cm3.h **** #define SCB_SHCSR_SYSTICKACT_Pos           11                                             /*!< SCB 
ARM GAS  /tmp/ccaw1hg7.s 			page 7


 303:CMSIS/CM3/CoreSupport/core_cm3.h **** #define SCB_SHCSR_SYSTICKACT_Msk           (1ul << SCB_SHCSR_SYSTICKACT_Pos)              /*!< SCB 
 304:CMSIS/CM3/CoreSupport/core_cm3.h **** 
 305:CMSIS/CM3/CoreSupport/core_cm3.h **** #define SCB_SHCSR_PENDSVACT_Pos            10                                             /*!< SCB 
 306:CMSIS/CM3/CoreSupport/core_cm3.h **** #define SCB_SHCSR_PENDSVACT_Msk            (1ul << SCB_SHCSR_PENDSVACT_Pos)               /*!< SCB 
 307:CMSIS/CM3/CoreSupport/core_cm3.h **** 
 308:CMSIS/CM3/CoreSupport/core_cm3.h **** #define SCB_SHCSR_MONITORACT_Pos            8                                             /*!< SCB 
 309:CMSIS/CM3/CoreSupport/core_cm3.h **** #define SCB_SHCSR_MONITORACT_Msk           (1ul << SCB_SHCSR_MONITORACT_Pos)              /*!< SCB 
 310:CMSIS/CM3/CoreSupport/core_cm3.h **** 
 311:CMSIS/CM3/CoreSupport/core_cm3.h **** #define SCB_SHCSR_SVCALLACT_Pos             7                                             /*!< SCB 
 312:CMSIS/CM3/CoreSupport/core_cm3.h **** #define SCB_SHCSR_SVCALLACT_Msk            (1ul << SCB_SHCSR_SVCALLACT_Pos)               /*!< SCB 
 313:CMSIS/CM3/CoreSupport/core_cm3.h ****                                      
 314:CMSIS/CM3/CoreSupport/core_cm3.h **** #define SCB_SHCSR_USGFAULTACT_Pos           3                                             /*!< SCB 
 315:CMSIS/CM3/CoreSupport/core_cm3.h **** #define SCB_SHCSR_USGFAULTACT_Msk          (1ul << SCB_SHCSR_USGFAULTACT_Pos)             /*!< SCB 
 316:CMSIS/CM3/CoreSupport/core_cm3.h **** 
 317:CMSIS/CM3/CoreSupport/core_cm3.h **** #define SCB_SHCSR_BUSFAULTACT_Pos           1                                             /*!< SCB 
 318:CMSIS/CM3/CoreSupport/core_cm3.h **** #define SCB_SHCSR_BUSFAULTACT_Msk          (1ul << SCB_SHCSR_BUSFAULTACT_Pos)             /*!< SCB 
 319:CMSIS/CM3/CoreSupport/core_cm3.h **** 
 320:CMSIS/CM3/CoreSupport/core_cm3.h **** #define SCB_SHCSR_MEMFAULTACT_Pos           0                                             /*!< SCB 
 321:CMSIS/CM3/CoreSupport/core_cm3.h **** #define SCB_SHCSR_MEMFAULTACT_Msk          (1ul << SCB_SHCSR_MEMFAULTACT_Pos)             /*!< SCB 
 322:CMSIS/CM3/CoreSupport/core_cm3.h **** 
 323:CMSIS/CM3/CoreSupport/core_cm3.h **** /* SCB Configurable Fault Status Registers Definitions */
 324:CMSIS/CM3/CoreSupport/core_cm3.h **** #define SCB_CFSR_USGFAULTSR_Pos            16                                             /*!< SCB 
 325:CMSIS/CM3/CoreSupport/core_cm3.h **** #define SCB_CFSR_USGFAULTSR_Msk            (0xFFFFul << SCB_CFSR_USGFAULTSR_Pos)          /*!< SCB 
 326:CMSIS/CM3/CoreSupport/core_cm3.h **** 
 327:CMSIS/CM3/CoreSupport/core_cm3.h **** #define SCB_CFSR_BUSFAULTSR_Pos             8                                             /*!< SCB 
 328:CMSIS/CM3/CoreSupport/core_cm3.h **** #define SCB_CFSR_BUSFAULTSR_Msk            (0xFFul << SCB_CFSR_BUSFAULTSR_Pos)            /*!< SCB 
 329:CMSIS/CM3/CoreSupport/core_cm3.h **** 
 330:CMSIS/CM3/CoreSupport/core_cm3.h **** #define SCB_CFSR_MEMFAULTSR_Pos             0                                             /*!< SCB 
 331:CMSIS/CM3/CoreSupport/core_cm3.h **** #define SCB_CFSR_MEMFAULTSR_Msk            (0xFFul << SCB_CFSR_MEMFAULTSR_Pos)            /*!< SCB 
 332:CMSIS/CM3/CoreSupport/core_cm3.h **** 
 333:CMSIS/CM3/CoreSupport/core_cm3.h **** /* SCB Hard Fault Status Registers Definitions */
 334:CMSIS/CM3/CoreSupport/core_cm3.h **** #define SCB_HFSR_DEBUGEVT_Pos              31                                             /*!< SCB 
 335:CMSIS/CM3/CoreSupport/core_cm3.h **** #define SCB_HFSR_DEBUGEVT_Msk              (1ul << SCB_HFSR_DEBUGEVT_Pos)                 /*!< SCB 
 336:CMSIS/CM3/CoreSupport/core_cm3.h **** 
 337:CMSIS/CM3/CoreSupport/core_cm3.h **** #define SCB_HFSR_FORCED_Pos                30                                             /*!< SCB 
 338:CMSIS/CM3/CoreSupport/core_cm3.h **** #define SCB_HFSR_FORCED_Msk                (1ul << SCB_HFSR_FORCED_Pos)                   /*!< SCB 
 339:CMSIS/CM3/CoreSupport/core_cm3.h **** 
 340:CMSIS/CM3/CoreSupport/core_cm3.h **** #define SCB_HFSR_VECTTBL_Pos                1                                             /*!< SCB 
 341:CMSIS/CM3/CoreSupport/core_cm3.h **** #define SCB_HFSR_VECTTBL_Msk               (1ul << SCB_HFSR_VECTTBL_Pos)                  /*!< SCB 
 342:CMSIS/CM3/CoreSupport/core_cm3.h **** 
 343:CMSIS/CM3/CoreSupport/core_cm3.h **** /* SCB Debug Fault Status Register Definitions */
 344:CMSIS/CM3/CoreSupport/core_cm3.h **** #define SCB_DFSR_EXTERNAL_Pos               4                                             /*!< SCB 
 345:CMSIS/CM3/CoreSupport/core_cm3.h **** #define SCB_DFSR_EXTERNAL_Msk              (1ul << SCB_DFSR_EXTERNAL_Pos)                 /*!< SCB 
 346:CMSIS/CM3/CoreSupport/core_cm3.h **** 
 347:CMSIS/CM3/CoreSupport/core_cm3.h **** #define SCB_DFSR_VCATCH_Pos                 3                                             /*!< SCB 
 348:CMSIS/CM3/CoreSupport/core_cm3.h **** #define SCB_DFSR_VCATCH_Msk                (1ul << SCB_DFSR_VCATCH_Pos)                   /*!< SCB 
 349:CMSIS/CM3/CoreSupport/core_cm3.h **** 
 350:CMSIS/CM3/CoreSupport/core_cm3.h **** #define SCB_DFSR_DWTTRAP_Pos                2                                             /*!< SCB 
 351:CMSIS/CM3/CoreSupport/core_cm3.h **** #define SCB_DFSR_DWTTRAP_Msk               (1ul << SCB_DFSR_DWTTRAP_Pos)                  /*!< SCB 
 352:CMSIS/CM3/CoreSupport/core_cm3.h **** 
 353:CMSIS/CM3/CoreSupport/core_cm3.h **** #define SCB_DFSR_BKPT_Pos                   1                                             /*!< SCB 
 354:CMSIS/CM3/CoreSupport/core_cm3.h **** #define SCB_DFSR_BKPT_Msk                  (1ul << SCB_DFSR_BKPT_Pos)                     /*!< SCB 
 355:CMSIS/CM3/CoreSupport/core_cm3.h **** 
 356:CMSIS/CM3/CoreSupport/core_cm3.h **** #define SCB_DFSR_HALTED_Pos                 0                                             /*!< SCB 
 357:CMSIS/CM3/CoreSupport/core_cm3.h **** #define SCB_DFSR_HALTED_Msk                (1ul << SCB_DFSR_HALTED_Pos)                   /*!< SCB 
 358:CMSIS/CM3/CoreSupport/core_cm3.h **** /*@}*/ /* end of group CMSIS_CM3_SCB */
 359:CMSIS/CM3/CoreSupport/core_cm3.h **** 
ARM GAS  /tmp/ccaw1hg7.s 			page 8


 360:CMSIS/CM3/CoreSupport/core_cm3.h **** 
 361:CMSIS/CM3/CoreSupport/core_cm3.h **** /** @addtogroup CMSIS_CM3_SysTick CMSIS CM3 SysTick
 362:CMSIS/CM3/CoreSupport/core_cm3.h ****   memory mapped structure for SysTick
 363:CMSIS/CM3/CoreSupport/core_cm3.h ****   @{
 364:CMSIS/CM3/CoreSupport/core_cm3.h ****  */
 365:CMSIS/CM3/CoreSupport/core_cm3.h **** typedef struct
 366:CMSIS/CM3/CoreSupport/core_cm3.h **** {
 367:CMSIS/CM3/CoreSupport/core_cm3.h ****   __IO uint32_t CTRL;                         /*!< Offset: 0x00  SysTick Control and Status Registe
 368:CMSIS/CM3/CoreSupport/core_cm3.h ****   __IO uint32_t LOAD;                         /*!< Offset: 0x04  SysTick Reload Value Register     
 369:CMSIS/CM3/CoreSupport/core_cm3.h ****   __IO uint32_t VAL;                          /*!< Offset: 0x08  SysTick Current Value Register    
 370:CMSIS/CM3/CoreSupport/core_cm3.h ****   __I  uint32_t CALIB;                        /*!< Offset: 0x0C  SysTick Calibration Register      
 371:CMSIS/CM3/CoreSupport/core_cm3.h **** } SysTick_Type;
 372:CMSIS/CM3/CoreSupport/core_cm3.h **** 
 373:CMSIS/CM3/CoreSupport/core_cm3.h **** /* SysTick Control / Status Register Definitions */
 374:CMSIS/CM3/CoreSupport/core_cm3.h **** #define SysTick_CTRL_COUNTFLAG_Pos         16                                             /*!< SysT
 375:CMSIS/CM3/CoreSupport/core_cm3.h **** #define SysTick_CTRL_COUNTFLAG_Msk         (1ul << SysTick_CTRL_COUNTFLAG_Pos)            /*!< SysT
 376:CMSIS/CM3/CoreSupport/core_cm3.h **** 
 377:CMSIS/CM3/CoreSupport/core_cm3.h **** #define SysTick_CTRL_CLKSOURCE_Pos          2                                             /*!< SysT
 378:CMSIS/CM3/CoreSupport/core_cm3.h **** #define SysTick_CTRL_CLKSOURCE_Msk         (1ul << SysTick_CTRL_CLKSOURCE_Pos)            /*!< SysT
 379:CMSIS/CM3/CoreSupport/core_cm3.h **** 
 380:CMSIS/CM3/CoreSupport/core_cm3.h **** #define SysTick_CTRL_TICKINT_Pos            1                                             /*!< SysT
 381:CMSIS/CM3/CoreSupport/core_cm3.h **** #define SysTick_CTRL_TICKINT_Msk           (1ul << SysTick_CTRL_TICKINT_Pos)              /*!< SysT
 382:CMSIS/CM3/CoreSupport/core_cm3.h **** 
 383:CMSIS/CM3/CoreSupport/core_cm3.h **** #define SysTick_CTRL_ENABLE_Pos             0                                             /*!< SysT
 384:CMSIS/CM3/CoreSupport/core_cm3.h **** #define SysTick_CTRL_ENABLE_Msk            (1ul << SysTick_CTRL_ENABLE_Pos)               /*!< SysT
 385:CMSIS/CM3/CoreSupport/core_cm3.h **** 
 386:CMSIS/CM3/CoreSupport/core_cm3.h **** /* SysTick Reload Register Definitions */
 387:CMSIS/CM3/CoreSupport/core_cm3.h **** #define SysTick_LOAD_RELOAD_Pos             0                                             /*!< SysT
 388:CMSIS/CM3/CoreSupport/core_cm3.h **** #define SysTick_LOAD_RELOAD_Msk            (0xFFFFFFul << SysTick_LOAD_RELOAD_Pos)        /*!< SysT
 389:CMSIS/CM3/CoreSupport/core_cm3.h **** 
 390:CMSIS/CM3/CoreSupport/core_cm3.h **** /* SysTick Current Register Definitions */
 391:CMSIS/CM3/CoreSupport/core_cm3.h **** #define SysTick_VAL_CURRENT_Pos             0                                             /*!< SysT
 392:CMSIS/CM3/CoreSupport/core_cm3.h **** #define SysTick_VAL_CURRENT_Msk            (0xFFFFFFul << SysTick_VAL_CURRENT_Pos)        /*!< SysT
 393:CMSIS/CM3/CoreSupport/core_cm3.h **** 
 394:CMSIS/CM3/CoreSupport/core_cm3.h **** /* SysTick Calibration Register Definitions */
 395:CMSIS/CM3/CoreSupport/core_cm3.h **** #define SysTick_CALIB_NOREF_Pos            31                                             /*!< SysT
 396:CMSIS/CM3/CoreSupport/core_cm3.h **** #define SysTick_CALIB_NOREF_Msk            (1ul << SysTick_CALIB_NOREF_Pos)               /*!< SysT
 397:CMSIS/CM3/CoreSupport/core_cm3.h **** 
 398:CMSIS/CM3/CoreSupport/core_cm3.h **** #define SysTick_CALIB_SKEW_Pos             30                                             /*!< SysT
 399:CMSIS/CM3/CoreSupport/core_cm3.h **** #define SysTick_CALIB_SKEW_Msk             (1ul << SysTick_CALIB_SKEW_Pos)                /*!< SysT
 400:CMSIS/CM3/CoreSupport/core_cm3.h **** 
 401:CMSIS/CM3/CoreSupport/core_cm3.h **** #define SysTick_CALIB_TENMS_Pos             0                                             /*!< SysT
 402:CMSIS/CM3/CoreSupport/core_cm3.h **** #define SysTick_CALIB_TENMS_Msk            (0xFFFFFFul << SysTick_VAL_CURRENT_Pos)        /*!< SysT
 403:CMSIS/CM3/CoreSupport/core_cm3.h **** /*@}*/ /* end of group CMSIS_CM3_SysTick */
 404:CMSIS/CM3/CoreSupport/core_cm3.h **** 
 405:CMSIS/CM3/CoreSupport/core_cm3.h **** 
 406:CMSIS/CM3/CoreSupport/core_cm3.h **** /** @addtogroup CMSIS_CM3_ITM CMSIS CM3 ITM
 407:CMSIS/CM3/CoreSupport/core_cm3.h ****   memory mapped structure for Instrumentation Trace Macrocell (ITM)
 408:CMSIS/CM3/CoreSupport/core_cm3.h ****   @{
 409:CMSIS/CM3/CoreSupport/core_cm3.h ****  */
 410:CMSIS/CM3/CoreSupport/core_cm3.h **** typedef struct
 411:CMSIS/CM3/CoreSupport/core_cm3.h **** {
 412:CMSIS/CM3/CoreSupport/core_cm3.h ****   __O  union  
 413:CMSIS/CM3/CoreSupport/core_cm3.h ****   {
 414:CMSIS/CM3/CoreSupport/core_cm3.h ****     __O  uint8_t    u8;                       /*!< Offset:       ITM Stimulus Port 8-bit           
 415:CMSIS/CM3/CoreSupport/core_cm3.h ****     __O  uint16_t   u16;                      /*!< Offset:       ITM Stimulus Port 16-bit          
 416:CMSIS/CM3/CoreSupport/core_cm3.h ****     __O  uint32_t   u32;                      /*!< Offset:       ITM Stimulus Port 32-bit          
ARM GAS  /tmp/ccaw1hg7.s 			page 9


 417:CMSIS/CM3/CoreSupport/core_cm3.h ****   }  PORT [32];                               /*!< Offset: 0x00  ITM Stimulus Port Registers       
 418:CMSIS/CM3/CoreSupport/core_cm3.h ****        uint32_t RESERVED0[864];                                 
 419:CMSIS/CM3/CoreSupport/core_cm3.h ****   __IO uint32_t TER;                          /*!< Offset:       ITM Trace Enable Register         
 420:CMSIS/CM3/CoreSupport/core_cm3.h ****        uint32_t RESERVED1[15];                                  
 421:CMSIS/CM3/CoreSupport/core_cm3.h ****   __IO uint32_t TPR;                          /*!< Offset:       ITM Trace Privilege Register      
 422:CMSIS/CM3/CoreSupport/core_cm3.h ****        uint32_t RESERVED2[15];                                  
 423:CMSIS/CM3/CoreSupport/core_cm3.h ****   __IO uint32_t TCR;                          /*!< Offset:       ITM Trace Control Register        
 424:CMSIS/CM3/CoreSupport/core_cm3.h ****        uint32_t RESERVED3[29];                                  
 425:CMSIS/CM3/CoreSupport/core_cm3.h ****   __IO uint32_t IWR;                          /*!< Offset:       ITM Integration Write Register    
 426:CMSIS/CM3/CoreSupport/core_cm3.h ****   __IO uint32_t IRR;                          /*!< Offset:       ITM Integration Read Register     
 427:CMSIS/CM3/CoreSupport/core_cm3.h ****   __IO uint32_t IMCR;                         /*!< Offset:       ITM Integration Mode Control Regis
 428:CMSIS/CM3/CoreSupport/core_cm3.h ****        uint32_t RESERVED4[43];                                  
 429:CMSIS/CM3/CoreSupport/core_cm3.h ****   __IO uint32_t LAR;                          /*!< Offset:       ITM Lock Access Register          
 430:CMSIS/CM3/CoreSupport/core_cm3.h ****   __IO uint32_t LSR;                          /*!< Offset:       ITM Lock Status Register          
 431:CMSIS/CM3/CoreSupport/core_cm3.h ****        uint32_t RESERVED5[6];                                   
 432:CMSIS/CM3/CoreSupport/core_cm3.h ****   __I  uint32_t PID4;                         /*!< Offset:       ITM Peripheral Identification Regi
 433:CMSIS/CM3/CoreSupport/core_cm3.h ****   __I  uint32_t PID5;                         /*!< Offset:       ITM Peripheral Identification Regi
 434:CMSIS/CM3/CoreSupport/core_cm3.h ****   __I  uint32_t PID6;                         /*!< Offset:       ITM Peripheral Identification Regi
 435:CMSIS/CM3/CoreSupport/core_cm3.h ****   __I  uint32_t PID7;                         /*!< Offset:       ITM Peripheral Identification Regi
 436:CMSIS/CM3/CoreSupport/core_cm3.h ****   __I  uint32_t PID0;                         /*!< Offset:       ITM Peripheral Identification Regi
 437:CMSIS/CM3/CoreSupport/core_cm3.h ****   __I  uint32_t PID1;                         /*!< Offset:       ITM Peripheral Identification Regi
 438:CMSIS/CM3/CoreSupport/core_cm3.h ****   __I  uint32_t PID2;                         /*!< Offset:       ITM Peripheral Identification Regi
 439:CMSIS/CM3/CoreSupport/core_cm3.h ****   __I  uint32_t PID3;                         /*!< Offset:       ITM Peripheral Identification Regi
 440:CMSIS/CM3/CoreSupport/core_cm3.h ****   __I  uint32_t CID0;                         /*!< Offset:       ITM Component  Identification Regi
 441:CMSIS/CM3/CoreSupport/core_cm3.h ****   __I  uint32_t CID1;                         /*!< Offset:       ITM Component  Identification Regi
 442:CMSIS/CM3/CoreSupport/core_cm3.h ****   __I  uint32_t CID2;                         /*!< Offset:       ITM Component  Identification Regi
 443:CMSIS/CM3/CoreSupport/core_cm3.h ****   __I  uint32_t CID3;                         /*!< Offset:       ITM Component  Identification Regi
 444:CMSIS/CM3/CoreSupport/core_cm3.h **** } ITM_Type;                                                
 445:CMSIS/CM3/CoreSupport/core_cm3.h **** 
 446:CMSIS/CM3/CoreSupport/core_cm3.h **** /* ITM Trace Privilege Register Definitions */
 447:CMSIS/CM3/CoreSupport/core_cm3.h **** #define ITM_TPR_PRIVMASK_Pos                0                                             /*!< ITM 
 448:CMSIS/CM3/CoreSupport/core_cm3.h **** #define ITM_TPR_PRIVMASK_Msk               (0xFul << ITM_TPR_PRIVMASK_Pos)                /*!< ITM 
 449:CMSIS/CM3/CoreSupport/core_cm3.h **** 
 450:CMSIS/CM3/CoreSupport/core_cm3.h **** /* ITM Trace Control Register Definitions */
 451:CMSIS/CM3/CoreSupport/core_cm3.h **** #define ITM_TCR_BUSY_Pos                   23                                             /*!< ITM 
 452:CMSIS/CM3/CoreSupport/core_cm3.h **** #define ITM_TCR_BUSY_Msk                   (1ul << ITM_TCR_BUSY_Pos)                      /*!< ITM 
 453:CMSIS/CM3/CoreSupport/core_cm3.h **** 
 454:CMSIS/CM3/CoreSupport/core_cm3.h **** #define ITM_TCR_ATBID_Pos                  16                                             /*!< ITM 
 455:CMSIS/CM3/CoreSupport/core_cm3.h **** #define ITM_TCR_ATBID_Msk                  (0x7Ful << ITM_TCR_ATBID_Pos)                  /*!< ITM 
 456:CMSIS/CM3/CoreSupport/core_cm3.h **** 
 457:CMSIS/CM3/CoreSupport/core_cm3.h **** #define ITM_TCR_TSPrescale_Pos              8                                             /*!< ITM 
 458:CMSIS/CM3/CoreSupport/core_cm3.h **** #define ITM_TCR_TSPrescale_Msk             (3ul << ITM_TCR_TSPrescale_Pos)                /*!< ITM 
 459:CMSIS/CM3/CoreSupport/core_cm3.h **** 
 460:CMSIS/CM3/CoreSupport/core_cm3.h **** #define ITM_TCR_SWOENA_Pos                  4                                             /*!< ITM 
 461:CMSIS/CM3/CoreSupport/core_cm3.h **** #define ITM_TCR_SWOENA_Msk                 (1ul << ITM_TCR_SWOENA_Pos)                    /*!< ITM 
 462:CMSIS/CM3/CoreSupport/core_cm3.h **** 
 463:CMSIS/CM3/CoreSupport/core_cm3.h **** #define ITM_TCR_DWTENA_Pos                  3                                             /*!< ITM 
 464:CMSIS/CM3/CoreSupport/core_cm3.h **** #define ITM_TCR_DWTENA_Msk                 (1ul << ITM_TCR_DWTENA_Pos)                    /*!< ITM 
 465:CMSIS/CM3/CoreSupport/core_cm3.h **** 
 466:CMSIS/CM3/CoreSupport/core_cm3.h **** #define ITM_TCR_SYNCENA_Pos                 2                                             /*!< ITM 
 467:CMSIS/CM3/CoreSupport/core_cm3.h **** #define ITM_TCR_SYNCENA_Msk                (1ul << ITM_TCR_SYNCENA_Pos)                   /*!< ITM 
 468:CMSIS/CM3/CoreSupport/core_cm3.h **** 
 469:CMSIS/CM3/CoreSupport/core_cm3.h **** #define ITM_TCR_TSENA_Pos                   1                                             /*!< ITM 
 470:CMSIS/CM3/CoreSupport/core_cm3.h **** #define ITM_TCR_TSENA_Msk                  (1ul << ITM_TCR_TSENA_Pos)                     /*!< ITM 
 471:CMSIS/CM3/CoreSupport/core_cm3.h **** 
 472:CMSIS/CM3/CoreSupport/core_cm3.h **** #define ITM_TCR_ITMENA_Pos                  0                                             /*!< ITM 
 473:CMSIS/CM3/CoreSupport/core_cm3.h **** #define ITM_TCR_ITMENA_Msk                 (1ul << ITM_TCR_ITMENA_Pos)                    /*!< ITM 
ARM GAS  /tmp/ccaw1hg7.s 			page 10


 474:CMSIS/CM3/CoreSupport/core_cm3.h **** 
 475:CMSIS/CM3/CoreSupport/core_cm3.h **** /* ITM Integration Write Register Definitions */
 476:CMSIS/CM3/CoreSupport/core_cm3.h **** #define ITM_IWR_ATVALIDM_Pos                0                                             /*!< ITM 
 477:CMSIS/CM3/CoreSupport/core_cm3.h **** #define ITM_IWR_ATVALIDM_Msk               (1ul << ITM_IWR_ATVALIDM_Pos)                  /*!< ITM 
 478:CMSIS/CM3/CoreSupport/core_cm3.h **** 
 479:CMSIS/CM3/CoreSupport/core_cm3.h **** /* ITM Integration Read Register Definitions */
 480:CMSIS/CM3/CoreSupport/core_cm3.h **** #define ITM_IRR_ATREADYM_Pos                0                                             /*!< ITM 
 481:CMSIS/CM3/CoreSupport/core_cm3.h **** #define ITM_IRR_ATREADYM_Msk               (1ul << ITM_IRR_ATREADYM_Pos)                  /*!< ITM 
 482:CMSIS/CM3/CoreSupport/core_cm3.h **** 
 483:CMSIS/CM3/CoreSupport/core_cm3.h **** /* ITM Integration Mode Control Register Definitions */
 484:CMSIS/CM3/CoreSupport/core_cm3.h **** #define ITM_IMCR_INTEGRATION_Pos            0                                             /*!< ITM 
 485:CMSIS/CM3/CoreSupport/core_cm3.h **** #define ITM_IMCR_INTEGRATION_Msk           (1ul << ITM_IMCR_INTEGRATION_Pos)              /*!< ITM 
 486:CMSIS/CM3/CoreSupport/core_cm3.h **** 
 487:CMSIS/CM3/CoreSupport/core_cm3.h **** /* ITM Lock Status Register Definitions */
 488:CMSIS/CM3/CoreSupport/core_cm3.h **** #define ITM_LSR_ByteAcc_Pos                 2                                             /*!< ITM 
 489:CMSIS/CM3/CoreSupport/core_cm3.h **** #define ITM_LSR_ByteAcc_Msk                (1ul << ITM_LSR_ByteAcc_Pos)                   /*!< ITM 
 490:CMSIS/CM3/CoreSupport/core_cm3.h **** 
 491:CMSIS/CM3/CoreSupport/core_cm3.h **** #define ITM_LSR_Access_Pos                  1                                             /*!< ITM 
 492:CMSIS/CM3/CoreSupport/core_cm3.h **** #define ITM_LSR_Access_Msk                 (1ul << ITM_LSR_Access_Pos)                    /*!< ITM 
 493:CMSIS/CM3/CoreSupport/core_cm3.h **** 
 494:CMSIS/CM3/CoreSupport/core_cm3.h **** #define ITM_LSR_Present_Pos                 0                                             /*!< ITM 
 495:CMSIS/CM3/CoreSupport/core_cm3.h **** #define ITM_LSR_Present_Msk                (1ul << ITM_LSR_Present_Pos)                   /*!< ITM 
 496:CMSIS/CM3/CoreSupport/core_cm3.h **** /*@}*/ /* end of group CMSIS_CM3_ITM */
 497:CMSIS/CM3/CoreSupport/core_cm3.h **** 
 498:CMSIS/CM3/CoreSupport/core_cm3.h **** 
 499:CMSIS/CM3/CoreSupport/core_cm3.h **** /** @addtogroup CMSIS_CM3_InterruptType CMSIS CM3 Interrupt Type
 500:CMSIS/CM3/CoreSupport/core_cm3.h ****   memory mapped structure for Interrupt Type
 501:CMSIS/CM3/CoreSupport/core_cm3.h ****   @{
 502:CMSIS/CM3/CoreSupport/core_cm3.h ****  */
 503:CMSIS/CM3/CoreSupport/core_cm3.h **** typedef struct
 504:CMSIS/CM3/CoreSupport/core_cm3.h **** {
 505:CMSIS/CM3/CoreSupport/core_cm3.h ****        uint32_t RESERVED0;
 506:CMSIS/CM3/CoreSupport/core_cm3.h ****   __I  uint32_t ICTR;                         /*!< Offset: 0x04  Interrupt Control Type Register */
 507:CMSIS/CM3/CoreSupport/core_cm3.h **** #if ((defined __CM3_REV) && (__CM3_REV >= 0x200))
 508:CMSIS/CM3/CoreSupport/core_cm3.h ****   __IO uint32_t ACTLR;                        /*!< Offset: 0x08  Auxiliary Control Register      */
 509:CMSIS/CM3/CoreSupport/core_cm3.h **** #else
 510:CMSIS/CM3/CoreSupport/core_cm3.h ****        uint32_t RESERVED1;
 511:CMSIS/CM3/CoreSupport/core_cm3.h **** #endif
 512:CMSIS/CM3/CoreSupport/core_cm3.h **** } InterruptType_Type;
 513:CMSIS/CM3/CoreSupport/core_cm3.h **** 
 514:CMSIS/CM3/CoreSupport/core_cm3.h **** /* Interrupt Controller Type Register Definitions */
 515:CMSIS/CM3/CoreSupport/core_cm3.h **** #define InterruptType_ICTR_INTLINESNUM_Pos  0                                             /*!< Inte
 516:CMSIS/CM3/CoreSupport/core_cm3.h **** #define InterruptType_ICTR_INTLINESNUM_Msk (0x1Ful << InterruptType_ICTR_INTLINESNUM_Pos) /*!< Inte
 517:CMSIS/CM3/CoreSupport/core_cm3.h **** 
 518:CMSIS/CM3/CoreSupport/core_cm3.h **** /* Auxiliary Control Register Definitions */
 519:CMSIS/CM3/CoreSupport/core_cm3.h **** #define InterruptType_ACTLR_DISFOLD_Pos     2                                             /*!< Inte
 520:CMSIS/CM3/CoreSupport/core_cm3.h **** #define InterruptType_ACTLR_DISFOLD_Msk    (1ul << InterruptType_ACTLR_DISFOLD_Pos)       /*!< Inte
 521:CMSIS/CM3/CoreSupport/core_cm3.h **** 
 522:CMSIS/CM3/CoreSupport/core_cm3.h **** #define InterruptType_ACTLR_DISDEFWBUF_Pos  1                                             /*!< Inte
 523:CMSIS/CM3/CoreSupport/core_cm3.h **** #define InterruptType_ACTLR_DISDEFWBUF_Msk (1ul << InterruptType_ACTLR_DISDEFWBUF_Pos)    /*!< Inte
 524:CMSIS/CM3/CoreSupport/core_cm3.h **** 
 525:CMSIS/CM3/CoreSupport/core_cm3.h **** #define InterruptType_ACTLR_DISMCYCINT_Pos  0                                             /*!< Inte
 526:CMSIS/CM3/CoreSupport/core_cm3.h **** #define InterruptType_ACTLR_DISMCYCINT_Msk (1ul << InterruptType_ACTLR_DISMCYCINT_Pos)    /*!< Inte
 527:CMSIS/CM3/CoreSupport/core_cm3.h **** /*@}*/ /* end of group CMSIS_CM3_InterruptType */
 528:CMSIS/CM3/CoreSupport/core_cm3.h **** 
 529:CMSIS/CM3/CoreSupport/core_cm3.h **** 
 530:CMSIS/CM3/CoreSupport/core_cm3.h **** #if defined (__MPU_PRESENT) && (__MPU_PRESENT == 1)
ARM GAS  /tmp/ccaw1hg7.s 			page 11


 531:CMSIS/CM3/CoreSupport/core_cm3.h **** /** @addtogroup CMSIS_CM3_MPU CMSIS CM3 MPU
 532:CMSIS/CM3/CoreSupport/core_cm3.h ****   memory mapped structure for Memory Protection Unit (MPU)
 533:CMSIS/CM3/CoreSupport/core_cm3.h ****   @{
 534:CMSIS/CM3/CoreSupport/core_cm3.h ****  */
 535:CMSIS/CM3/CoreSupport/core_cm3.h **** typedef struct
 536:CMSIS/CM3/CoreSupport/core_cm3.h **** {
 537:CMSIS/CM3/CoreSupport/core_cm3.h ****   __I  uint32_t TYPE;                         /*!< Offset: 0x00  MPU Type Register                 
 538:CMSIS/CM3/CoreSupport/core_cm3.h ****   __IO uint32_t CTRL;                         /*!< Offset: 0x04  MPU Control Register              
 539:CMSIS/CM3/CoreSupport/core_cm3.h ****   __IO uint32_t RNR;                          /*!< Offset: 0x08  MPU Region RNRber Register        
 540:CMSIS/CM3/CoreSupport/core_cm3.h ****   __IO uint32_t RBAR;                         /*!< Offset: 0x0C  MPU Region Base Address Register  
 541:CMSIS/CM3/CoreSupport/core_cm3.h ****   __IO uint32_t RASR;                         /*!< Offset: 0x10  MPU Region Attribute and Size Regi
 542:CMSIS/CM3/CoreSupport/core_cm3.h ****   __IO uint32_t RBAR_A1;                      /*!< Offset: 0x14  MPU Alias 1 Region Base Address Re
 543:CMSIS/CM3/CoreSupport/core_cm3.h ****   __IO uint32_t RASR_A1;                      /*!< Offset: 0x18  MPU Alias 1 Region Attribute and S
 544:CMSIS/CM3/CoreSupport/core_cm3.h ****   __IO uint32_t RBAR_A2;                      /*!< Offset: 0x1C  MPU Alias 2 Region Base Address Re
 545:CMSIS/CM3/CoreSupport/core_cm3.h ****   __IO uint32_t RASR_A2;                      /*!< Offset: 0x20  MPU Alias 2 Region Attribute and S
 546:CMSIS/CM3/CoreSupport/core_cm3.h ****   __IO uint32_t RBAR_A3;                      /*!< Offset: 0x24  MPU Alias 3 Region Base Address Re
 547:CMSIS/CM3/CoreSupport/core_cm3.h ****   __IO uint32_t RASR_A3;                      /*!< Offset: 0x28  MPU Alias 3 Region Attribute and S
 548:CMSIS/CM3/CoreSupport/core_cm3.h **** } MPU_Type;                                                
 549:CMSIS/CM3/CoreSupport/core_cm3.h **** 
 550:CMSIS/CM3/CoreSupport/core_cm3.h **** /* MPU Type Register */
 551:CMSIS/CM3/CoreSupport/core_cm3.h **** #define MPU_TYPE_IREGION_Pos               16                                             /*!< MPU 
 552:CMSIS/CM3/CoreSupport/core_cm3.h **** #define MPU_TYPE_IREGION_Msk               (0xFFul << MPU_TYPE_IREGION_Pos)               /*!< MPU 
 553:CMSIS/CM3/CoreSupport/core_cm3.h **** 
 554:CMSIS/CM3/CoreSupport/core_cm3.h **** #define MPU_TYPE_DREGION_Pos                8                                             /*!< MPU 
 555:CMSIS/CM3/CoreSupport/core_cm3.h **** #define MPU_TYPE_DREGION_Msk               (0xFFul << MPU_TYPE_DREGION_Pos)               /*!< MPU 
 556:CMSIS/CM3/CoreSupport/core_cm3.h **** 
 557:CMSIS/CM3/CoreSupport/core_cm3.h **** #define MPU_TYPE_SEPARATE_Pos               0                                             /*!< MPU 
 558:CMSIS/CM3/CoreSupport/core_cm3.h **** #define MPU_TYPE_SEPARATE_Msk              (1ul << MPU_TYPE_SEPARATE_Pos)                 /*!< MPU 
 559:CMSIS/CM3/CoreSupport/core_cm3.h **** 
 560:CMSIS/CM3/CoreSupport/core_cm3.h **** /* MPU Control Register */
 561:CMSIS/CM3/CoreSupport/core_cm3.h **** #define MPU_CTRL_PRIVDEFENA_Pos             2                                             /*!< MPU 
 562:CMSIS/CM3/CoreSupport/core_cm3.h **** #define MPU_CTRL_PRIVDEFENA_Msk            (1ul << MPU_CTRL_PRIVDEFENA_Pos)               /*!< MPU 
 563:CMSIS/CM3/CoreSupport/core_cm3.h **** 
 564:CMSIS/CM3/CoreSupport/core_cm3.h **** #define MPU_CTRL_HFNMIENA_Pos               1                                             /*!< MPU 
 565:CMSIS/CM3/CoreSupport/core_cm3.h **** #define MPU_CTRL_HFNMIENA_Msk              (1ul << MPU_CTRL_HFNMIENA_Pos)                 /*!< MPU 
 566:CMSIS/CM3/CoreSupport/core_cm3.h **** 
 567:CMSIS/CM3/CoreSupport/core_cm3.h **** #define MPU_CTRL_ENABLE_Pos                 0                                             /*!< MPU 
 568:CMSIS/CM3/CoreSupport/core_cm3.h **** #define MPU_CTRL_ENABLE_Msk                (1ul << MPU_CTRL_ENABLE_Pos)                   /*!< MPU 
 569:CMSIS/CM3/CoreSupport/core_cm3.h **** 
 570:CMSIS/CM3/CoreSupport/core_cm3.h **** /* MPU Region Number Register */
 571:CMSIS/CM3/CoreSupport/core_cm3.h **** #define MPU_RNR_REGION_Pos                  0                                             /*!< MPU 
 572:CMSIS/CM3/CoreSupport/core_cm3.h **** #define MPU_RNR_REGION_Msk                 (0xFFul << MPU_RNR_REGION_Pos)                 /*!< MPU 
 573:CMSIS/CM3/CoreSupport/core_cm3.h **** 
 574:CMSIS/CM3/CoreSupport/core_cm3.h **** /* MPU Region Base Address Register */
 575:CMSIS/CM3/CoreSupport/core_cm3.h **** #define MPU_RBAR_ADDR_Pos                   5                                             /*!< MPU 
 576:CMSIS/CM3/CoreSupport/core_cm3.h **** #define MPU_RBAR_ADDR_Msk                  (0x7FFFFFFul << MPU_RBAR_ADDR_Pos)             /*!< MPU 
 577:CMSIS/CM3/CoreSupport/core_cm3.h **** 
 578:CMSIS/CM3/CoreSupport/core_cm3.h **** #define MPU_RBAR_VALID_Pos                  4                                             /*!< MPU 
 579:CMSIS/CM3/CoreSupport/core_cm3.h **** #define MPU_RBAR_VALID_Msk                 (1ul << MPU_RBAR_VALID_Pos)                    /*!< MPU 
 580:CMSIS/CM3/CoreSupport/core_cm3.h **** 
 581:CMSIS/CM3/CoreSupport/core_cm3.h **** #define MPU_RBAR_REGION_Pos                 0                                             /*!< MPU 
 582:CMSIS/CM3/CoreSupport/core_cm3.h **** #define MPU_RBAR_REGION_Msk                (0xFul << MPU_RBAR_REGION_Pos)                 /*!< MPU 
 583:CMSIS/CM3/CoreSupport/core_cm3.h **** 
 584:CMSIS/CM3/CoreSupport/core_cm3.h **** /* MPU Region Attribute and Size Register */
 585:CMSIS/CM3/CoreSupport/core_cm3.h **** #define MPU_RASR_XN_Pos                    28                                             /*!< MPU 
 586:CMSIS/CM3/CoreSupport/core_cm3.h **** #define MPU_RASR_XN_Msk                    (1ul << MPU_RASR_XN_Pos)                       /*!< MPU 
 587:CMSIS/CM3/CoreSupport/core_cm3.h **** 
ARM GAS  /tmp/ccaw1hg7.s 			page 12


 588:CMSIS/CM3/CoreSupport/core_cm3.h **** #define MPU_RASR_AP_Pos                    24                                             /*!< MPU 
 589:CMSIS/CM3/CoreSupport/core_cm3.h **** #define MPU_RASR_AP_Msk                    (7ul << MPU_RASR_AP_Pos)                       /*!< MPU 
 590:CMSIS/CM3/CoreSupport/core_cm3.h **** 
 591:CMSIS/CM3/CoreSupport/core_cm3.h **** #define MPU_RASR_TEX_Pos                   19                                             /*!< MPU 
 592:CMSIS/CM3/CoreSupport/core_cm3.h **** #define MPU_RASR_TEX_Msk                   (7ul << MPU_RASR_TEX_Pos)                      /*!< MPU 
 593:CMSIS/CM3/CoreSupport/core_cm3.h **** 
 594:CMSIS/CM3/CoreSupport/core_cm3.h **** #define MPU_RASR_S_Pos                     18                                             /*!< MPU 
 595:CMSIS/CM3/CoreSupport/core_cm3.h **** #define MPU_RASR_S_Msk                     (1ul << MPU_RASR_S_Pos)                        /*!< MPU 
 596:CMSIS/CM3/CoreSupport/core_cm3.h **** 
 597:CMSIS/CM3/CoreSupport/core_cm3.h **** #define MPU_RASR_C_Pos                     17                                             /*!< MPU 
 598:CMSIS/CM3/CoreSupport/core_cm3.h **** #define MPU_RASR_C_Msk                     (1ul << MPU_RASR_C_Pos)                        /*!< MPU 
 599:CMSIS/CM3/CoreSupport/core_cm3.h **** 
 600:CMSIS/CM3/CoreSupport/core_cm3.h **** #define MPU_RASR_B_Pos                     16                                             /*!< MPU 
 601:CMSIS/CM3/CoreSupport/core_cm3.h **** #define MPU_RASR_B_Msk                     (1ul << MPU_RASR_B_Pos)                        /*!< MPU 
 602:CMSIS/CM3/CoreSupport/core_cm3.h **** 
 603:CMSIS/CM3/CoreSupport/core_cm3.h **** #define MPU_RASR_SRD_Pos                    8                                             /*!< MPU 
 604:CMSIS/CM3/CoreSupport/core_cm3.h **** #define MPU_RASR_SRD_Msk                   (0xFFul << MPU_RASR_SRD_Pos)                   /*!< MPU 
 605:CMSIS/CM3/CoreSupport/core_cm3.h **** 
 606:CMSIS/CM3/CoreSupport/core_cm3.h **** #define MPU_RASR_SIZE_Pos                   1                                             /*!< MPU 
 607:CMSIS/CM3/CoreSupport/core_cm3.h **** #define MPU_RASR_SIZE_Msk                  (0x1Ful << MPU_RASR_SIZE_Pos)                  /*!< MPU 
 608:CMSIS/CM3/CoreSupport/core_cm3.h **** 
 609:CMSIS/CM3/CoreSupport/core_cm3.h **** #define MPU_RASR_ENA_Pos                     0                                            /*!< MPU 
 610:CMSIS/CM3/CoreSupport/core_cm3.h **** #define MPU_RASR_ENA_Msk                    (0x1Ful << MPU_RASR_ENA_Pos)                  /*!< MPU 
 611:CMSIS/CM3/CoreSupport/core_cm3.h **** 
 612:CMSIS/CM3/CoreSupport/core_cm3.h **** /*@}*/ /* end of group CMSIS_CM3_MPU */
 613:CMSIS/CM3/CoreSupport/core_cm3.h **** #endif
 614:CMSIS/CM3/CoreSupport/core_cm3.h **** 
 615:CMSIS/CM3/CoreSupport/core_cm3.h **** 
 616:CMSIS/CM3/CoreSupport/core_cm3.h **** /** @addtogroup CMSIS_CM3_CoreDebug CMSIS CM3 Core Debug
 617:CMSIS/CM3/CoreSupport/core_cm3.h ****   memory mapped structure for Core Debug Register
 618:CMSIS/CM3/CoreSupport/core_cm3.h ****   @{
 619:CMSIS/CM3/CoreSupport/core_cm3.h ****  */
 620:CMSIS/CM3/CoreSupport/core_cm3.h **** typedef struct
 621:CMSIS/CM3/CoreSupport/core_cm3.h **** {
 622:CMSIS/CM3/CoreSupport/core_cm3.h ****   __IO uint32_t DHCSR;                        /*!< Offset: 0x00  Debug Halting Control and Status R
 623:CMSIS/CM3/CoreSupport/core_cm3.h ****   __O  uint32_t DCRSR;                        /*!< Offset: 0x04  Debug Core Register Selector Regis
 624:CMSIS/CM3/CoreSupport/core_cm3.h ****   __IO uint32_t DCRDR;                        /*!< Offset: 0x08  Debug Core Register Data Register 
 625:CMSIS/CM3/CoreSupport/core_cm3.h ****   __IO uint32_t DEMCR;                        /*!< Offset: 0x0C  Debug Exception and Monitor Contro
 626:CMSIS/CM3/CoreSupport/core_cm3.h **** } CoreDebug_Type;
 627:CMSIS/CM3/CoreSupport/core_cm3.h **** 
 628:CMSIS/CM3/CoreSupport/core_cm3.h **** /* Debug Halting Control and Status Register */
 629:CMSIS/CM3/CoreSupport/core_cm3.h **** #define CoreDebug_DHCSR_DBGKEY_Pos         16                                             /*!< Core
 630:CMSIS/CM3/CoreSupport/core_cm3.h **** #define CoreDebug_DHCSR_DBGKEY_Msk         (0xFFFFul << CoreDebug_DHCSR_DBGKEY_Pos)       /*!< Core
 631:CMSIS/CM3/CoreSupport/core_cm3.h **** 
 632:CMSIS/CM3/CoreSupport/core_cm3.h **** #define CoreDebug_DHCSR_S_RESET_ST_Pos     25                                             /*!< Core
 633:CMSIS/CM3/CoreSupport/core_cm3.h **** #define CoreDebug_DHCSR_S_RESET_ST_Msk     (1ul << CoreDebug_DHCSR_S_RESET_ST_Pos)        /*!< Core
 634:CMSIS/CM3/CoreSupport/core_cm3.h **** 
 635:CMSIS/CM3/CoreSupport/core_cm3.h **** #define CoreDebug_DHCSR_S_RETIRE_ST_Pos    24                                             /*!< Core
 636:CMSIS/CM3/CoreSupport/core_cm3.h **** #define CoreDebug_DHCSR_S_RETIRE_ST_Msk    (1ul << CoreDebug_DHCSR_S_RETIRE_ST_Pos)       /*!< Core
 637:CMSIS/CM3/CoreSupport/core_cm3.h **** 
 638:CMSIS/CM3/CoreSupport/core_cm3.h **** #define CoreDebug_DHCSR_S_LOCKUP_Pos       19                                             /*!< Core
 639:CMSIS/CM3/CoreSupport/core_cm3.h **** #define CoreDebug_DHCSR_S_LOCKUP_Msk       (1ul << CoreDebug_DHCSR_S_LOCKUP_Pos)          /*!< Core
 640:CMSIS/CM3/CoreSupport/core_cm3.h **** 
 641:CMSIS/CM3/CoreSupport/core_cm3.h **** #define CoreDebug_DHCSR_S_SLEEP_Pos        18                                             /*!< Core
 642:CMSIS/CM3/CoreSupport/core_cm3.h **** #define CoreDebug_DHCSR_S_SLEEP_Msk        (1ul << CoreDebug_DHCSR_S_SLEEP_Pos)           /*!< Core
 643:CMSIS/CM3/CoreSupport/core_cm3.h **** 
 644:CMSIS/CM3/CoreSupport/core_cm3.h **** #define CoreDebug_DHCSR_S_HALT_Pos         17                                             /*!< Core
ARM GAS  /tmp/ccaw1hg7.s 			page 13


 645:CMSIS/CM3/CoreSupport/core_cm3.h **** #define CoreDebug_DHCSR_S_HALT_Msk         (1ul << CoreDebug_DHCSR_S_HALT_Pos)            /*!< Core
 646:CMSIS/CM3/CoreSupport/core_cm3.h **** 
 647:CMSIS/CM3/CoreSupport/core_cm3.h **** #define CoreDebug_DHCSR_S_REGRDY_Pos       16                                             /*!< Core
 648:CMSIS/CM3/CoreSupport/core_cm3.h **** #define CoreDebug_DHCSR_S_REGRDY_Msk       (1ul << CoreDebug_DHCSR_S_REGRDY_Pos)          /*!< Core
 649:CMSIS/CM3/CoreSupport/core_cm3.h **** 
 650:CMSIS/CM3/CoreSupport/core_cm3.h **** #define CoreDebug_DHCSR_C_SNAPSTALL_Pos     5                                             /*!< Core
 651:CMSIS/CM3/CoreSupport/core_cm3.h **** #define CoreDebug_DHCSR_C_SNAPSTALL_Msk    (1ul << CoreDebug_DHCSR_C_SNAPSTALL_Pos)       /*!< Core
 652:CMSIS/CM3/CoreSupport/core_cm3.h **** 
 653:CMSIS/CM3/CoreSupport/core_cm3.h **** #define CoreDebug_DHCSR_C_MASKINTS_Pos      3                                             /*!< Core
 654:CMSIS/CM3/CoreSupport/core_cm3.h **** #define CoreDebug_DHCSR_C_MASKINTS_Msk     (1ul << CoreDebug_DHCSR_C_MASKINTS_Pos)        /*!< Core
 655:CMSIS/CM3/CoreSupport/core_cm3.h **** 
 656:CMSIS/CM3/CoreSupport/core_cm3.h **** #define CoreDebug_DHCSR_C_STEP_Pos          2                                             /*!< Core
 657:CMSIS/CM3/CoreSupport/core_cm3.h **** #define CoreDebug_DHCSR_C_STEP_Msk         (1ul << CoreDebug_DHCSR_C_STEP_Pos)            /*!< Core
 658:CMSIS/CM3/CoreSupport/core_cm3.h **** 
 659:CMSIS/CM3/CoreSupport/core_cm3.h **** #define CoreDebug_DHCSR_C_HALT_Pos          1                                             /*!< Core
 660:CMSIS/CM3/CoreSupport/core_cm3.h **** #define CoreDebug_DHCSR_C_HALT_Msk         (1ul << CoreDebug_DHCSR_C_HALT_Pos)            /*!< Core
 661:CMSIS/CM3/CoreSupport/core_cm3.h **** 
 662:CMSIS/CM3/CoreSupport/core_cm3.h **** #define CoreDebug_DHCSR_C_DEBUGEN_Pos       0                                             /*!< Core
 663:CMSIS/CM3/CoreSupport/core_cm3.h **** #define CoreDebug_DHCSR_C_DEBUGEN_Msk      (1ul << CoreDebug_DHCSR_C_DEBUGEN_Pos)         /*!< Core
 664:CMSIS/CM3/CoreSupport/core_cm3.h **** 
 665:CMSIS/CM3/CoreSupport/core_cm3.h **** /* Debug Core Register Selector Register */
 666:CMSIS/CM3/CoreSupport/core_cm3.h **** #define CoreDebug_DCRSR_REGWnR_Pos         16                                             /*!< Core
 667:CMSIS/CM3/CoreSupport/core_cm3.h **** #define CoreDebug_DCRSR_REGWnR_Msk         (1ul << CoreDebug_DCRSR_REGWnR_Pos)            /*!< Core
 668:CMSIS/CM3/CoreSupport/core_cm3.h **** 
 669:CMSIS/CM3/CoreSupport/core_cm3.h **** #define CoreDebug_DCRSR_REGSEL_Pos          0                                             /*!< Core
 670:CMSIS/CM3/CoreSupport/core_cm3.h **** #define CoreDebug_DCRSR_REGSEL_Msk         (0x1Ful << CoreDebug_DCRSR_REGSEL_Pos)         /*!< Core
 671:CMSIS/CM3/CoreSupport/core_cm3.h **** 
 672:CMSIS/CM3/CoreSupport/core_cm3.h **** /* Debug Exception and Monitor Control Register */
 673:CMSIS/CM3/CoreSupport/core_cm3.h **** #define CoreDebug_DEMCR_TRCENA_Pos         24                                             /*!< Core
 674:CMSIS/CM3/CoreSupport/core_cm3.h **** #define CoreDebug_DEMCR_TRCENA_Msk         (1ul << CoreDebug_DEMCR_TRCENA_Pos)            /*!< Core
 675:CMSIS/CM3/CoreSupport/core_cm3.h **** 
 676:CMSIS/CM3/CoreSupport/core_cm3.h **** #define CoreDebug_DEMCR_MON_REQ_Pos        19                                             /*!< Core
 677:CMSIS/CM3/CoreSupport/core_cm3.h **** #define CoreDebug_DEMCR_MON_REQ_Msk        (1ul << CoreDebug_DEMCR_MON_REQ_Pos)           /*!< Core
 678:CMSIS/CM3/CoreSupport/core_cm3.h **** 
 679:CMSIS/CM3/CoreSupport/core_cm3.h **** #define CoreDebug_DEMCR_MON_STEP_Pos       18                                             /*!< Core
 680:CMSIS/CM3/CoreSupport/core_cm3.h **** #define CoreDebug_DEMCR_MON_STEP_Msk       (1ul << CoreDebug_DEMCR_MON_STEP_Pos)          /*!< Core
 681:CMSIS/CM3/CoreSupport/core_cm3.h **** 
 682:CMSIS/CM3/CoreSupport/core_cm3.h **** #define CoreDebug_DEMCR_MON_PEND_Pos       17                                             /*!< Core
 683:CMSIS/CM3/CoreSupport/core_cm3.h **** #define CoreDebug_DEMCR_MON_PEND_Msk       (1ul << CoreDebug_DEMCR_MON_PEND_Pos)          /*!< Core
 684:CMSIS/CM3/CoreSupport/core_cm3.h **** 
 685:CMSIS/CM3/CoreSupport/core_cm3.h **** #define CoreDebug_DEMCR_MON_EN_Pos         16                                             /*!< Core
 686:CMSIS/CM3/CoreSupport/core_cm3.h **** #define CoreDebug_DEMCR_MON_EN_Msk         (1ul << CoreDebug_DEMCR_MON_EN_Pos)            /*!< Core
 687:CMSIS/CM3/CoreSupport/core_cm3.h **** 
 688:CMSIS/CM3/CoreSupport/core_cm3.h **** #define CoreDebug_DEMCR_VC_HARDERR_Pos     10                                             /*!< Core
 689:CMSIS/CM3/CoreSupport/core_cm3.h **** #define CoreDebug_DEMCR_VC_HARDERR_Msk     (1ul << CoreDebug_DEMCR_VC_HARDERR_Pos)        /*!< Core
 690:CMSIS/CM3/CoreSupport/core_cm3.h **** 
 691:CMSIS/CM3/CoreSupport/core_cm3.h **** #define CoreDebug_DEMCR_VC_INTERR_Pos       9                                             /*!< Core
 692:CMSIS/CM3/CoreSupport/core_cm3.h **** #define CoreDebug_DEMCR_VC_INTERR_Msk      (1ul << CoreDebug_DEMCR_VC_INTERR_Pos)         /*!< Core
 693:CMSIS/CM3/CoreSupport/core_cm3.h **** 
 694:CMSIS/CM3/CoreSupport/core_cm3.h **** #define CoreDebug_DEMCR_VC_BUSERR_Pos       8                                             /*!< Core
 695:CMSIS/CM3/CoreSupport/core_cm3.h **** #define CoreDebug_DEMCR_VC_BUSERR_Msk      (1ul << CoreDebug_DEMCR_VC_BUSERR_Pos)         /*!< Core
 696:CMSIS/CM3/CoreSupport/core_cm3.h **** 
 697:CMSIS/CM3/CoreSupport/core_cm3.h **** #define CoreDebug_DEMCR_VC_STATERR_Pos      7                                             /*!< Core
 698:CMSIS/CM3/CoreSupport/core_cm3.h **** #define CoreDebug_DEMCR_VC_STATERR_Msk     (1ul << CoreDebug_DEMCR_VC_STATERR_Pos)        /*!< Core
 699:CMSIS/CM3/CoreSupport/core_cm3.h **** 
 700:CMSIS/CM3/CoreSupport/core_cm3.h **** #define CoreDebug_DEMCR_VC_CHKERR_Pos       6                                             /*!< Core
 701:CMSIS/CM3/CoreSupport/core_cm3.h **** #define CoreDebug_DEMCR_VC_CHKERR_Msk      (1ul << CoreDebug_DEMCR_VC_CHKERR_Pos)         /*!< Core
ARM GAS  /tmp/ccaw1hg7.s 			page 14


 702:CMSIS/CM3/CoreSupport/core_cm3.h **** 
 703:CMSIS/CM3/CoreSupport/core_cm3.h **** #define CoreDebug_DEMCR_VC_NOCPERR_Pos      5                                             /*!< Core
 704:CMSIS/CM3/CoreSupport/core_cm3.h **** #define CoreDebug_DEMCR_VC_NOCPERR_Msk     (1ul << CoreDebug_DEMCR_VC_NOCPERR_Pos)        /*!< Core
 705:CMSIS/CM3/CoreSupport/core_cm3.h **** 
 706:CMSIS/CM3/CoreSupport/core_cm3.h **** #define CoreDebug_DEMCR_VC_MMERR_Pos        4                                             /*!< Core
 707:CMSIS/CM3/CoreSupport/core_cm3.h **** #define CoreDebug_DEMCR_VC_MMERR_Msk       (1ul << CoreDebug_DEMCR_VC_MMERR_Pos)          /*!< Core
 708:CMSIS/CM3/CoreSupport/core_cm3.h **** 
 709:CMSIS/CM3/CoreSupport/core_cm3.h **** #define CoreDebug_DEMCR_VC_CORERESET_Pos    0                                             /*!< Core
 710:CMSIS/CM3/CoreSupport/core_cm3.h **** #define CoreDebug_DEMCR_VC_CORERESET_Msk   (1ul << CoreDebug_DEMCR_VC_CORERESET_Pos)      /*!< Core
 711:CMSIS/CM3/CoreSupport/core_cm3.h **** /*@}*/ /* end of group CMSIS_CM3_CoreDebug */
 712:CMSIS/CM3/CoreSupport/core_cm3.h **** 
 713:CMSIS/CM3/CoreSupport/core_cm3.h **** 
 714:CMSIS/CM3/CoreSupport/core_cm3.h **** /* Memory mapping of Cortex-M3 Hardware */
 715:CMSIS/CM3/CoreSupport/core_cm3.h **** #define SCS_BASE            (0xE000E000)                              /*!< System Control Space Bas
 716:CMSIS/CM3/CoreSupport/core_cm3.h **** #define ITM_BASE            (0xE0000000)                              /*!< ITM Base Address        
 717:CMSIS/CM3/CoreSupport/core_cm3.h **** #define CoreDebug_BASE      (0xE000EDF0)                              /*!< Core Debug Base Address 
 718:CMSIS/CM3/CoreSupport/core_cm3.h **** #define SysTick_BASE        (SCS_BASE +  0x0010)                      /*!< SysTick Base Address    
 719:CMSIS/CM3/CoreSupport/core_cm3.h **** #define NVIC_BASE           (SCS_BASE +  0x0100)                      /*!< NVIC Base Address       
 720:CMSIS/CM3/CoreSupport/core_cm3.h **** #define SCB_BASE            (SCS_BASE +  0x0D00)                      /*!< System Control Block Bas
 721:CMSIS/CM3/CoreSupport/core_cm3.h **** 
 722:CMSIS/CM3/CoreSupport/core_cm3.h **** #define InterruptType       ((InterruptType_Type *) SCS_BASE)         /*!< Interrupt Type Register 
 723:CMSIS/CM3/CoreSupport/core_cm3.h **** #define SCB                 ((SCB_Type *)           SCB_BASE)         /*!< SCB configuration struct
 724:CMSIS/CM3/CoreSupport/core_cm3.h **** #define SysTick             ((SysTick_Type *)       SysTick_BASE)     /*!< SysTick configuration st
 725:CMSIS/CM3/CoreSupport/core_cm3.h **** #define NVIC                ((NVIC_Type *)          NVIC_BASE)        /*!< NVIC configuration struc
 726:CMSIS/CM3/CoreSupport/core_cm3.h **** #define ITM                 ((ITM_Type *)           ITM_BASE)         /*!< ITM configuration struct
 727:CMSIS/CM3/CoreSupport/core_cm3.h **** #define CoreDebug           ((CoreDebug_Type *)     CoreDebug_BASE)   /*!< Core Debug configuration
 728:CMSIS/CM3/CoreSupport/core_cm3.h **** 
 729:CMSIS/CM3/CoreSupport/core_cm3.h **** #if defined (__MPU_PRESENT) && (__MPU_PRESENT == 1)
 730:CMSIS/CM3/CoreSupport/core_cm3.h ****   #define MPU_BASE          (SCS_BASE +  0x0D90)                      /*!< Memory Protection Unit  
 731:CMSIS/CM3/CoreSupport/core_cm3.h ****   #define MPU               ((MPU_Type*)            MPU_BASE)         /*!< Memory Protection Unit  
 732:CMSIS/CM3/CoreSupport/core_cm3.h **** #endif
 733:CMSIS/CM3/CoreSupport/core_cm3.h **** 
 734:CMSIS/CM3/CoreSupport/core_cm3.h **** /*@}*/ /* end of group CMSIS_CM3_core_register */
 735:CMSIS/CM3/CoreSupport/core_cm3.h **** 
 736:CMSIS/CM3/CoreSupport/core_cm3.h **** 
 737:CMSIS/CM3/CoreSupport/core_cm3.h **** /*******************************************************************************
 738:CMSIS/CM3/CoreSupport/core_cm3.h ****  *                Hardware Abstraction Layer
 739:CMSIS/CM3/CoreSupport/core_cm3.h ****  ******************************************************************************/
 740:CMSIS/CM3/CoreSupport/core_cm3.h **** 
 741:CMSIS/CM3/CoreSupport/core_cm3.h **** #if defined ( __CC_ARM   )
 742:CMSIS/CM3/CoreSupport/core_cm3.h ****   #define __ASM            __asm                                      /*!< asm keyword for ARM Comp
 743:CMSIS/CM3/CoreSupport/core_cm3.h ****   #define __INLINE         __inline                                   /*!< inline keyword for ARM C
 744:CMSIS/CM3/CoreSupport/core_cm3.h **** 
 745:CMSIS/CM3/CoreSupport/core_cm3.h **** #elif defined ( __ICCARM__ )
 746:CMSIS/CM3/CoreSupport/core_cm3.h ****   #define __ASM           __asm                                       /*!< asm keyword for IAR Comp
 747:CMSIS/CM3/CoreSupport/core_cm3.h ****   #define __INLINE        inline                                      /*!< inline keyword for IAR C
 748:CMSIS/CM3/CoreSupport/core_cm3.h **** 
 749:CMSIS/CM3/CoreSupport/core_cm3.h **** #elif defined   (  __GNUC__  )
 750:CMSIS/CM3/CoreSupport/core_cm3.h ****   #define __ASM            __asm                                      /*!< asm keyword for GNU Comp
 751:CMSIS/CM3/CoreSupport/core_cm3.h ****   #define __INLINE         inline                                     /*!< inline keyword for GNU C
 752:CMSIS/CM3/CoreSupport/core_cm3.h **** 
 753:CMSIS/CM3/CoreSupport/core_cm3.h **** #elif defined   (  __TASKING__  )
 754:CMSIS/CM3/CoreSupport/core_cm3.h ****   #define __ASM            __asm                                      /*!< asm keyword for TASKING 
 755:CMSIS/CM3/CoreSupport/core_cm3.h ****   #define __INLINE         inline                                     /*!< inline keyword for TASKI
 756:CMSIS/CM3/CoreSupport/core_cm3.h **** 
 757:CMSIS/CM3/CoreSupport/core_cm3.h **** #endif
 758:CMSIS/CM3/CoreSupport/core_cm3.h **** 
ARM GAS  /tmp/ccaw1hg7.s 			page 15


 759:CMSIS/CM3/CoreSupport/core_cm3.h **** 
 760:CMSIS/CM3/CoreSupport/core_cm3.h **** /* ###################  Compiler specific Intrinsics  ########################### */
 761:CMSIS/CM3/CoreSupport/core_cm3.h **** 
 762:CMSIS/CM3/CoreSupport/core_cm3.h **** #if defined ( __CC_ARM   ) /*------------------RealView Compiler -----------------*/
 763:CMSIS/CM3/CoreSupport/core_cm3.h **** /* ARM armcc specific functions */
 764:CMSIS/CM3/CoreSupport/core_cm3.h **** 
 765:CMSIS/CM3/CoreSupport/core_cm3.h **** #define __enable_fault_irq                __enable_fiq
 766:CMSIS/CM3/CoreSupport/core_cm3.h **** #define __disable_fault_irq               __disable_fiq
 767:CMSIS/CM3/CoreSupport/core_cm3.h **** 
 768:CMSIS/CM3/CoreSupport/core_cm3.h **** #define __NOP                             __nop
 769:CMSIS/CM3/CoreSupport/core_cm3.h **** #define __WFI                             __wfi
 770:CMSIS/CM3/CoreSupport/core_cm3.h **** #define __WFE                             __wfe
 771:CMSIS/CM3/CoreSupport/core_cm3.h **** #define __SEV                             __sev
 772:CMSIS/CM3/CoreSupport/core_cm3.h **** #define __ISB()                           __isb(0)
 773:CMSIS/CM3/CoreSupport/core_cm3.h **** #define __DSB()                           __dsb(0)
 774:CMSIS/CM3/CoreSupport/core_cm3.h **** #define __DMB()                           __dmb(0)
 775:CMSIS/CM3/CoreSupport/core_cm3.h **** #define __REV                             __rev
 776:CMSIS/CM3/CoreSupport/core_cm3.h **** #define __RBIT                            __rbit
 777:CMSIS/CM3/CoreSupport/core_cm3.h **** #define __LDREXB(ptr)                     ((unsigned char ) __ldrex(ptr))
 778:CMSIS/CM3/CoreSupport/core_cm3.h **** #define __LDREXH(ptr)                     ((unsigned short) __ldrex(ptr))
 779:CMSIS/CM3/CoreSupport/core_cm3.h **** #define __LDREXW(ptr)                     ((unsigned int  ) __ldrex(ptr))
 780:CMSIS/CM3/CoreSupport/core_cm3.h **** #define __STREXB(value, ptr)              __strex(value, ptr)
 781:CMSIS/CM3/CoreSupport/core_cm3.h **** #define __STREXH(value, ptr)              __strex(value, ptr)
 782:CMSIS/CM3/CoreSupport/core_cm3.h **** #define __STREXW(value, ptr)              __strex(value, ptr)
 783:CMSIS/CM3/CoreSupport/core_cm3.h **** 
 784:CMSIS/CM3/CoreSupport/core_cm3.h **** 
 785:CMSIS/CM3/CoreSupport/core_cm3.h **** /* intrinsic unsigned long long __ldrexd(volatile void *ptr) */
 786:CMSIS/CM3/CoreSupport/core_cm3.h **** /* intrinsic int __strexd(unsigned long long val, volatile void *ptr) */
 787:CMSIS/CM3/CoreSupport/core_cm3.h **** /* intrinsic void __enable_irq();     */
 788:CMSIS/CM3/CoreSupport/core_cm3.h **** /* intrinsic void __disable_irq();    */
 789:CMSIS/CM3/CoreSupport/core_cm3.h **** 
 790:CMSIS/CM3/CoreSupport/core_cm3.h **** 
 791:CMSIS/CM3/CoreSupport/core_cm3.h **** /**
 792:CMSIS/CM3/CoreSupport/core_cm3.h ****  * @brief  Return the Process Stack Pointer
 793:CMSIS/CM3/CoreSupport/core_cm3.h ****  *
 794:CMSIS/CM3/CoreSupport/core_cm3.h ****  * @return ProcessStackPointer
 795:CMSIS/CM3/CoreSupport/core_cm3.h ****  *
 796:CMSIS/CM3/CoreSupport/core_cm3.h ****  * Return the actual process stack pointer
 797:CMSIS/CM3/CoreSupport/core_cm3.h ****  */
 798:CMSIS/CM3/CoreSupport/core_cm3.h **** extern uint32_t __get_PSP(void);
 799:CMSIS/CM3/CoreSupport/core_cm3.h **** 
 800:CMSIS/CM3/CoreSupport/core_cm3.h **** /**
 801:CMSIS/CM3/CoreSupport/core_cm3.h ****  * @brief  Set the Process Stack Pointer
 802:CMSIS/CM3/CoreSupport/core_cm3.h ****  *
 803:CMSIS/CM3/CoreSupport/core_cm3.h ****  * @param  topOfProcStack  Process Stack Pointer
 804:CMSIS/CM3/CoreSupport/core_cm3.h ****  *
 805:CMSIS/CM3/CoreSupport/core_cm3.h ****  * Assign the value ProcessStackPointer to the MSP 
 806:CMSIS/CM3/CoreSupport/core_cm3.h ****  * (process stack pointer) Cortex processor register
 807:CMSIS/CM3/CoreSupport/core_cm3.h ****  */
 808:CMSIS/CM3/CoreSupport/core_cm3.h **** extern void __set_PSP(uint32_t topOfProcStack);
 809:CMSIS/CM3/CoreSupport/core_cm3.h **** 
 810:CMSIS/CM3/CoreSupport/core_cm3.h **** /**
 811:CMSIS/CM3/CoreSupport/core_cm3.h ****  * @brief  Return the Main Stack Pointer
 812:CMSIS/CM3/CoreSupport/core_cm3.h ****  *
 813:CMSIS/CM3/CoreSupport/core_cm3.h ****  * @return Main Stack Pointer
 814:CMSIS/CM3/CoreSupport/core_cm3.h ****  *
 815:CMSIS/CM3/CoreSupport/core_cm3.h ****  * Return the current value of the MSP (main stack pointer)
ARM GAS  /tmp/ccaw1hg7.s 			page 16


 816:CMSIS/CM3/CoreSupport/core_cm3.h ****  * Cortex processor register
 817:CMSIS/CM3/CoreSupport/core_cm3.h ****  */
 818:CMSIS/CM3/CoreSupport/core_cm3.h **** extern uint32_t __get_MSP(void);
 819:CMSIS/CM3/CoreSupport/core_cm3.h **** 
 820:CMSIS/CM3/CoreSupport/core_cm3.h **** /**
 821:CMSIS/CM3/CoreSupport/core_cm3.h ****  * @brief  Set the Main Stack Pointer
 822:CMSIS/CM3/CoreSupport/core_cm3.h ****  *
 823:CMSIS/CM3/CoreSupport/core_cm3.h ****  * @param  topOfMainStack  Main Stack Pointer
 824:CMSIS/CM3/CoreSupport/core_cm3.h ****  *
 825:CMSIS/CM3/CoreSupport/core_cm3.h ****  * Assign the value mainStackPointer to the MSP 
 826:CMSIS/CM3/CoreSupport/core_cm3.h ****  * (main stack pointer) Cortex processor register
 827:CMSIS/CM3/CoreSupport/core_cm3.h ****  */
 828:CMSIS/CM3/CoreSupport/core_cm3.h **** extern void __set_MSP(uint32_t topOfMainStack);
 829:CMSIS/CM3/CoreSupport/core_cm3.h **** 
 830:CMSIS/CM3/CoreSupport/core_cm3.h **** /**
 831:CMSIS/CM3/CoreSupport/core_cm3.h ****  * @brief  Reverse byte order in unsigned short value
 832:CMSIS/CM3/CoreSupport/core_cm3.h ****  *
 833:CMSIS/CM3/CoreSupport/core_cm3.h ****  * @param   value  value to reverse
 834:CMSIS/CM3/CoreSupport/core_cm3.h ****  * @return         reversed value
 835:CMSIS/CM3/CoreSupport/core_cm3.h ****  *
 836:CMSIS/CM3/CoreSupport/core_cm3.h ****  * Reverse byte order in unsigned short value
 837:CMSIS/CM3/CoreSupport/core_cm3.h ****  */
 838:CMSIS/CM3/CoreSupport/core_cm3.h **** extern uint32_t __REV16(uint16_t value);
 839:CMSIS/CM3/CoreSupport/core_cm3.h **** 
 840:CMSIS/CM3/CoreSupport/core_cm3.h **** /**
 841:CMSIS/CM3/CoreSupport/core_cm3.h ****  * @brief  Reverse byte order in signed short value with sign extension to integer
 842:CMSIS/CM3/CoreSupport/core_cm3.h ****  *
 843:CMSIS/CM3/CoreSupport/core_cm3.h ****  * @param   value  value to reverse
 844:CMSIS/CM3/CoreSupport/core_cm3.h ****  * @return         reversed value
 845:CMSIS/CM3/CoreSupport/core_cm3.h ****  *
 846:CMSIS/CM3/CoreSupport/core_cm3.h ****  * Reverse byte order in signed short value with sign extension to integer
 847:CMSIS/CM3/CoreSupport/core_cm3.h ****  */
 848:CMSIS/CM3/CoreSupport/core_cm3.h **** extern int32_t __REVSH(int16_t value);
 849:CMSIS/CM3/CoreSupport/core_cm3.h **** 
 850:CMSIS/CM3/CoreSupport/core_cm3.h **** 
 851:CMSIS/CM3/CoreSupport/core_cm3.h **** #if (__ARMCC_VERSION < 400000)
 852:CMSIS/CM3/CoreSupport/core_cm3.h **** 
 853:CMSIS/CM3/CoreSupport/core_cm3.h **** /**
 854:CMSIS/CM3/CoreSupport/core_cm3.h ****  * @brief  Remove the exclusive lock created by ldrex
 855:CMSIS/CM3/CoreSupport/core_cm3.h ****  *
 856:CMSIS/CM3/CoreSupport/core_cm3.h ****  * Removes the exclusive lock which is created by ldrex.
 857:CMSIS/CM3/CoreSupport/core_cm3.h ****  */
 858:CMSIS/CM3/CoreSupport/core_cm3.h **** extern void __CLREX(void);
 859:CMSIS/CM3/CoreSupport/core_cm3.h **** 
 860:CMSIS/CM3/CoreSupport/core_cm3.h **** /**
 861:CMSIS/CM3/CoreSupport/core_cm3.h ****  * @brief  Return the Base Priority value
 862:CMSIS/CM3/CoreSupport/core_cm3.h ****  *
 863:CMSIS/CM3/CoreSupport/core_cm3.h ****  * @return BasePriority
 864:CMSIS/CM3/CoreSupport/core_cm3.h ****  *
 865:CMSIS/CM3/CoreSupport/core_cm3.h ****  * Return the content of the base priority register
 866:CMSIS/CM3/CoreSupport/core_cm3.h ****  */
 867:CMSIS/CM3/CoreSupport/core_cm3.h **** extern uint32_t __get_BASEPRI(void);
 868:CMSIS/CM3/CoreSupport/core_cm3.h **** 
 869:CMSIS/CM3/CoreSupport/core_cm3.h **** /**
 870:CMSIS/CM3/CoreSupport/core_cm3.h ****  * @brief  Set the Base Priority value
 871:CMSIS/CM3/CoreSupport/core_cm3.h ****  *
 872:CMSIS/CM3/CoreSupport/core_cm3.h ****  * @param  basePri  BasePriority
ARM GAS  /tmp/ccaw1hg7.s 			page 17


 873:CMSIS/CM3/CoreSupport/core_cm3.h ****  *
 874:CMSIS/CM3/CoreSupport/core_cm3.h ****  * Set the base priority register
 875:CMSIS/CM3/CoreSupport/core_cm3.h ****  */
 876:CMSIS/CM3/CoreSupport/core_cm3.h **** extern void __set_BASEPRI(uint32_t basePri);
 877:CMSIS/CM3/CoreSupport/core_cm3.h **** 
 878:CMSIS/CM3/CoreSupport/core_cm3.h **** /**
 879:CMSIS/CM3/CoreSupport/core_cm3.h ****  * @brief  Return the Priority Mask value
 880:CMSIS/CM3/CoreSupport/core_cm3.h ****  *
 881:CMSIS/CM3/CoreSupport/core_cm3.h ****  * @return PriMask
 882:CMSIS/CM3/CoreSupport/core_cm3.h ****  *
 883:CMSIS/CM3/CoreSupport/core_cm3.h ****  * Return state of the priority mask bit from the priority mask register
 884:CMSIS/CM3/CoreSupport/core_cm3.h ****  */
 885:CMSIS/CM3/CoreSupport/core_cm3.h **** extern uint32_t __get_PRIMASK(void);
 886:CMSIS/CM3/CoreSupport/core_cm3.h **** 
 887:CMSIS/CM3/CoreSupport/core_cm3.h **** /**
 888:CMSIS/CM3/CoreSupport/core_cm3.h ****  * @brief  Set the Priority Mask value
 889:CMSIS/CM3/CoreSupport/core_cm3.h ****  *
 890:CMSIS/CM3/CoreSupport/core_cm3.h ****  * @param   priMask  PriMask
 891:CMSIS/CM3/CoreSupport/core_cm3.h ****  *
 892:CMSIS/CM3/CoreSupport/core_cm3.h ****  * Set the priority mask bit in the priority mask register
 893:CMSIS/CM3/CoreSupport/core_cm3.h ****  */
 894:CMSIS/CM3/CoreSupport/core_cm3.h **** extern void __set_PRIMASK(uint32_t priMask);
 895:CMSIS/CM3/CoreSupport/core_cm3.h **** 
 896:CMSIS/CM3/CoreSupport/core_cm3.h **** /**
 897:CMSIS/CM3/CoreSupport/core_cm3.h ****  * @brief  Return the Fault Mask value
 898:CMSIS/CM3/CoreSupport/core_cm3.h ****  *
 899:CMSIS/CM3/CoreSupport/core_cm3.h ****  * @return FaultMask
 900:CMSIS/CM3/CoreSupport/core_cm3.h ****  *
 901:CMSIS/CM3/CoreSupport/core_cm3.h ****  * Return the content of the fault mask register
 902:CMSIS/CM3/CoreSupport/core_cm3.h ****  */
 903:CMSIS/CM3/CoreSupport/core_cm3.h **** extern uint32_t __get_FAULTMASK(void);
 904:CMSIS/CM3/CoreSupport/core_cm3.h **** 
 905:CMSIS/CM3/CoreSupport/core_cm3.h **** /**
 906:CMSIS/CM3/CoreSupport/core_cm3.h ****  * @brief  Set the Fault Mask value
 907:CMSIS/CM3/CoreSupport/core_cm3.h ****  *
 908:CMSIS/CM3/CoreSupport/core_cm3.h ****  * @param  faultMask faultMask value
 909:CMSIS/CM3/CoreSupport/core_cm3.h ****  *
 910:CMSIS/CM3/CoreSupport/core_cm3.h ****  * Set the fault mask register
 911:CMSIS/CM3/CoreSupport/core_cm3.h ****  */
 912:CMSIS/CM3/CoreSupport/core_cm3.h **** extern void __set_FAULTMASK(uint32_t faultMask);
 913:CMSIS/CM3/CoreSupport/core_cm3.h **** 
 914:CMSIS/CM3/CoreSupport/core_cm3.h **** /**
 915:CMSIS/CM3/CoreSupport/core_cm3.h ****  * @brief  Return the Control Register value
 916:CMSIS/CM3/CoreSupport/core_cm3.h ****  * 
 917:CMSIS/CM3/CoreSupport/core_cm3.h ****  * @return Control value
 918:CMSIS/CM3/CoreSupport/core_cm3.h ****  *
 919:CMSIS/CM3/CoreSupport/core_cm3.h ****  * Return the content of the control register
 920:CMSIS/CM3/CoreSupport/core_cm3.h ****  */
 921:CMSIS/CM3/CoreSupport/core_cm3.h **** extern uint32_t __get_CONTROL(void);
 922:CMSIS/CM3/CoreSupport/core_cm3.h **** 
 923:CMSIS/CM3/CoreSupport/core_cm3.h **** /**
 924:CMSIS/CM3/CoreSupport/core_cm3.h ****  * @brief  Set the Control Register value
 925:CMSIS/CM3/CoreSupport/core_cm3.h ****  *
 926:CMSIS/CM3/CoreSupport/core_cm3.h ****  * @param  control  Control value
 927:CMSIS/CM3/CoreSupport/core_cm3.h ****  *
 928:CMSIS/CM3/CoreSupport/core_cm3.h ****  * Set the control register
 929:CMSIS/CM3/CoreSupport/core_cm3.h ****  */
ARM GAS  /tmp/ccaw1hg7.s 			page 18


 930:CMSIS/CM3/CoreSupport/core_cm3.h **** extern void __set_CONTROL(uint32_t control);
 931:CMSIS/CM3/CoreSupport/core_cm3.h **** 
 932:CMSIS/CM3/CoreSupport/core_cm3.h **** #else  /* (__ARMCC_VERSION >= 400000)  */
 933:CMSIS/CM3/CoreSupport/core_cm3.h **** 
 934:CMSIS/CM3/CoreSupport/core_cm3.h **** /**
 935:CMSIS/CM3/CoreSupport/core_cm3.h ****  * @brief  Remove the exclusive lock created by ldrex
 936:CMSIS/CM3/CoreSupport/core_cm3.h ****  *
 937:CMSIS/CM3/CoreSupport/core_cm3.h ****  * Removes the exclusive lock which is created by ldrex.
 938:CMSIS/CM3/CoreSupport/core_cm3.h ****  */
 939:CMSIS/CM3/CoreSupport/core_cm3.h **** #define __CLREX                           __clrex
 940:CMSIS/CM3/CoreSupport/core_cm3.h **** 
 941:CMSIS/CM3/CoreSupport/core_cm3.h **** /**
 942:CMSIS/CM3/CoreSupport/core_cm3.h ****  * @brief  Return the Base Priority value
 943:CMSIS/CM3/CoreSupport/core_cm3.h ****  *
 944:CMSIS/CM3/CoreSupport/core_cm3.h ****  * @return BasePriority
 945:CMSIS/CM3/CoreSupport/core_cm3.h ****  *
 946:CMSIS/CM3/CoreSupport/core_cm3.h ****  * Return the content of the base priority register
 947:CMSIS/CM3/CoreSupport/core_cm3.h ****  */
 948:CMSIS/CM3/CoreSupport/core_cm3.h **** static __INLINE uint32_t  __get_BASEPRI(void)
 949:CMSIS/CM3/CoreSupport/core_cm3.h **** {
 950:CMSIS/CM3/CoreSupport/core_cm3.h ****   register uint32_t __regBasePri         __ASM("basepri");
 951:CMSIS/CM3/CoreSupport/core_cm3.h ****   return(__regBasePri);
 952:CMSIS/CM3/CoreSupport/core_cm3.h **** }
 953:CMSIS/CM3/CoreSupport/core_cm3.h **** 
 954:CMSIS/CM3/CoreSupport/core_cm3.h **** /**
 955:CMSIS/CM3/CoreSupport/core_cm3.h ****  * @brief  Set the Base Priority value
 956:CMSIS/CM3/CoreSupport/core_cm3.h ****  *
 957:CMSIS/CM3/CoreSupport/core_cm3.h ****  * @param  basePri  BasePriority
 958:CMSIS/CM3/CoreSupport/core_cm3.h ****  *
 959:CMSIS/CM3/CoreSupport/core_cm3.h ****  * Set the base priority register
 960:CMSIS/CM3/CoreSupport/core_cm3.h ****  */
 961:CMSIS/CM3/CoreSupport/core_cm3.h **** static __INLINE void __set_BASEPRI(uint32_t basePri)
 962:CMSIS/CM3/CoreSupport/core_cm3.h **** {
 963:CMSIS/CM3/CoreSupport/core_cm3.h ****   register uint32_t __regBasePri         __ASM("basepri");
 964:CMSIS/CM3/CoreSupport/core_cm3.h ****   __regBasePri = (basePri & 0xff);
 965:CMSIS/CM3/CoreSupport/core_cm3.h **** }
 966:CMSIS/CM3/CoreSupport/core_cm3.h **** 
 967:CMSIS/CM3/CoreSupport/core_cm3.h **** /**
 968:CMSIS/CM3/CoreSupport/core_cm3.h ****  * @brief  Return the Priority Mask value
 969:CMSIS/CM3/CoreSupport/core_cm3.h ****  *
 970:CMSIS/CM3/CoreSupport/core_cm3.h ****  * @return PriMask
 971:CMSIS/CM3/CoreSupport/core_cm3.h ****  *
 972:CMSIS/CM3/CoreSupport/core_cm3.h ****  * Return state of the priority mask bit from the priority mask register
 973:CMSIS/CM3/CoreSupport/core_cm3.h ****  */
 974:CMSIS/CM3/CoreSupport/core_cm3.h **** static __INLINE uint32_t __get_PRIMASK(void)
 975:CMSIS/CM3/CoreSupport/core_cm3.h **** {
 976:CMSIS/CM3/CoreSupport/core_cm3.h ****   register uint32_t __regPriMask         __ASM("primask");
 977:CMSIS/CM3/CoreSupport/core_cm3.h ****   return(__regPriMask);
 978:CMSIS/CM3/CoreSupport/core_cm3.h **** }
 979:CMSIS/CM3/CoreSupport/core_cm3.h **** 
 980:CMSIS/CM3/CoreSupport/core_cm3.h **** /**
 981:CMSIS/CM3/CoreSupport/core_cm3.h ****  * @brief  Set the Priority Mask value
 982:CMSIS/CM3/CoreSupport/core_cm3.h ****  *
 983:CMSIS/CM3/CoreSupport/core_cm3.h ****  * @param  priMask  PriMask
 984:CMSIS/CM3/CoreSupport/core_cm3.h ****  *
 985:CMSIS/CM3/CoreSupport/core_cm3.h ****  * Set the priority mask bit in the priority mask register
 986:CMSIS/CM3/CoreSupport/core_cm3.h ****  */
ARM GAS  /tmp/ccaw1hg7.s 			page 19


 987:CMSIS/CM3/CoreSupport/core_cm3.h **** static __INLINE void __set_PRIMASK(uint32_t priMask)
 988:CMSIS/CM3/CoreSupport/core_cm3.h **** {
 989:CMSIS/CM3/CoreSupport/core_cm3.h ****   register uint32_t __regPriMask         __ASM("primask");
 990:CMSIS/CM3/CoreSupport/core_cm3.h ****   __regPriMask = (priMask);
 991:CMSIS/CM3/CoreSupport/core_cm3.h **** }
 992:CMSIS/CM3/CoreSupport/core_cm3.h **** 
 993:CMSIS/CM3/CoreSupport/core_cm3.h **** /**
 994:CMSIS/CM3/CoreSupport/core_cm3.h ****  * @brief  Return the Fault Mask value
 995:CMSIS/CM3/CoreSupport/core_cm3.h ****  *
 996:CMSIS/CM3/CoreSupport/core_cm3.h ****  * @return FaultMask
 997:CMSIS/CM3/CoreSupport/core_cm3.h ****  *
 998:CMSIS/CM3/CoreSupport/core_cm3.h ****  * Return the content of the fault mask register
 999:CMSIS/CM3/CoreSupport/core_cm3.h ****  */
1000:CMSIS/CM3/CoreSupport/core_cm3.h **** static __INLINE uint32_t __get_FAULTMASK(void)
1001:CMSIS/CM3/CoreSupport/core_cm3.h **** {
1002:CMSIS/CM3/CoreSupport/core_cm3.h ****   register uint32_t __regFaultMask       __ASM("faultmask");
1003:CMSIS/CM3/CoreSupport/core_cm3.h ****   return(__regFaultMask);
1004:CMSIS/CM3/CoreSupport/core_cm3.h **** }
1005:CMSIS/CM3/CoreSupport/core_cm3.h **** 
1006:CMSIS/CM3/CoreSupport/core_cm3.h **** /**
1007:CMSIS/CM3/CoreSupport/core_cm3.h ****  * @brief  Set the Fault Mask value
1008:CMSIS/CM3/CoreSupport/core_cm3.h ****  *
1009:CMSIS/CM3/CoreSupport/core_cm3.h ****  * @param  faultMask  faultMask value
1010:CMSIS/CM3/CoreSupport/core_cm3.h ****  *
1011:CMSIS/CM3/CoreSupport/core_cm3.h ****  * Set the fault mask register
1012:CMSIS/CM3/CoreSupport/core_cm3.h ****  */
1013:CMSIS/CM3/CoreSupport/core_cm3.h **** static __INLINE void __set_FAULTMASK(uint32_t faultMask)
1014:CMSIS/CM3/CoreSupport/core_cm3.h **** {
1015:CMSIS/CM3/CoreSupport/core_cm3.h ****   register uint32_t __regFaultMask       __ASM("faultmask");
1016:CMSIS/CM3/CoreSupport/core_cm3.h ****   __regFaultMask = (faultMask & 1);
1017:CMSIS/CM3/CoreSupport/core_cm3.h **** }
1018:CMSIS/CM3/CoreSupport/core_cm3.h **** 
1019:CMSIS/CM3/CoreSupport/core_cm3.h **** /**
1020:CMSIS/CM3/CoreSupport/core_cm3.h ****  * @brief  Return the Control Register value
1021:CMSIS/CM3/CoreSupport/core_cm3.h ****  * 
1022:CMSIS/CM3/CoreSupport/core_cm3.h ****  * @return Control value
1023:CMSIS/CM3/CoreSupport/core_cm3.h ****  *
1024:CMSIS/CM3/CoreSupport/core_cm3.h ****  * Return the content of the control register
1025:CMSIS/CM3/CoreSupport/core_cm3.h ****  */
1026:CMSIS/CM3/CoreSupport/core_cm3.h **** static __INLINE uint32_t __get_CONTROL(void)
1027:CMSIS/CM3/CoreSupport/core_cm3.h **** {
1028:CMSIS/CM3/CoreSupport/core_cm3.h ****   register uint32_t __regControl         __ASM("control");
1029:CMSIS/CM3/CoreSupport/core_cm3.h ****   return(__regControl);
1030:CMSIS/CM3/CoreSupport/core_cm3.h **** }
1031:CMSIS/CM3/CoreSupport/core_cm3.h **** 
1032:CMSIS/CM3/CoreSupport/core_cm3.h **** /**
1033:CMSIS/CM3/CoreSupport/core_cm3.h ****  * @brief  Set the Control Register value
1034:CMSIS/CM3/CoreSupport/core_cm3.h ****  *
1035:CMSIS/CM3/CoreSupport/core_cm3.h ****  * @param  control  Control value
1036:CMSIS/CM3/CoreSupport/core_cm3.h ****  *
1037:CMSIS/CM3/CoreSupport/core_cm3.h ****  * Set the control register
1038:CMSIS/CM3/CoreSupport/core_cm3.h ****  */
1039:CMSIS/CM3/CoreSupport/core_cm3.h **** static __INLINE void __set_CONTROL(uint32_t control)
1040:CMSIS/CM3/CoreSupport/core_cm3.h **** {
1041:CMSIS/CM3/CoreSupport/core_cm3.h ****   register uint32_t __regControl         __ASM("control");
1042:CMSIS/CM3/CoreSupport/core_cm3.h ****   __regControl = control;
1043:CMSIS/CM3/CoreSupport/core_cm3.h **** }
ARM GAS  /tmp/ccaw1hg7.s 			page 20


1044:CMSIS/CM3/CoreSupport/core_cm3.h **** 
1045:CMSIS/CM3/CoreSupport/core_cm3.h **** #endif /* __ARMCC_VERSION  */ 
1046:CMSIS/CM3/CoreSupport/core_cm3.h **** 
1047:CMSIS/CM3/CoreSupport/core_cm3.h **** 
1048:CMSIS/CM3/CoreSupport/core_cm3.h **** 
1049:CMSIS/CM3/CoreSupport/core_cm3.h **** #elif (defined (__ICCARM__)) /*------------------ ICC Compiler -------------------*/
1050:CMSIS/CM3/CoreSupport/core_cm3.h **** /* IAR iccarm specific functions */
1051:CMSIS/CM3/CoreSupport/core_cm3.h **** 
1052:CMSIS/CM3/CoreSupport/core_cm3.h **** #define __enable_irq                              __enable_interrupt        /*!< global Interrupt e
1053:CMSIS/CM3/CoreSupport/core_cm3.h **** #define __disable_irq                             __disable_interrupt       /*!< global Interrupt d
1054:CMSIS/CM3/CoreSupport/core_cm3.h **** 
1055:CMSIS/CM3/CoreSupport/core_cm3.h **** static __INLINE void __enable_fault_irq()         { __ASM ("cpsie f"); }
1056:CMSIS/CM3/CoreSupport/core_cm3.h **** static __INLINE void __disable_fault_irq()        { __ASM ("cpsid f"); }
1057:CMSIS/CM3/CoreSupport/core_cm3.h **** 
1058:CMSIS/CM3/CoreSupport/core_cm3.h **** #define __NOP                                     __no_operation            /*!< no operation intri
1059:CMSIS/CM3/CoreSupport/core_cm3.h **** static __INLINE  void __WFI()                     { __ASM ("wfi"); }
1060:CMSIS/CM3/CoreSupport/core_cm3.h **** static __INLINE  void __WFE()                     { __ASM ("wfe"); }
1061:CMSIS/CM3/CoreSupport/core_cm3.h **** static __INLINE  void __SEV()                     { __ASM ("sev"); }
1062:CMSIS/CM3/CoreSupport/core_cm3.h **** static __INLINE  void __CLREX()                   { __ASM ("clrex"); }
1063:CMSIS/CM3/CoreSupport/core_cm3.h **** 
1064:CMSIS/CM3/CoreSupport/core_cm3.h **** /* intrinsic void __ISB(void)                                     */
1065:CMSIS/CM3/CoreSupport/core_cm3.h **** /* intrinsic void __DSB(void)                                     */
1066:CMSIS/CM3/CoreSupport/core_cm3.h **** /* intrinsic void __DMB(void)                                     */
1067:CMSIS/CM3/CoreSupport/core_cm3.h **** /* intrinsic void __set_PRIMASK();                                */
1068:CMSIS/CM3/CoreSupport/core_cm3.h **** /* intrinsic void __get_PRIMASK();                                */
1069:CMSIS/CM3/CoreSupport/core_cm3.h **** /* intrinsic void __set_FAULTMASK();                              */
1070:CMSIS/CM3/CoreSupport/core_cm3.h **** /* intrinsic void __get_FAULTMASK();                              */
1071:CMSIS/CM3/CoreSupport/core_cm3.h **** /* intrinsic uint32_t __REV(uint32_t value);                      */
1072:CMSIS/CM3/CoreSupport/core_cm3.h **** /* intrinsic uint32_t __REVSH(uint32_t value);                    */
1073:CMSIS/CM3/CoreSupport/core_cm3.h **** /* intrinsic unsigned long __STREX(unsigned long, unsigned long); */
1074:CMSIS/CM3/CoreSupport/core_cm3.h **** /* intrinsic unsigned long __LDREX(unsigned long *);              */
1075:CMSIS/CM3/CoreSupport/core_cm3.h **** 
1076:CMSIS/CM3/CoreSupport/core_cm3.h **** 
1077:CMSIS/CM3/CoreSupport/core_cm3.h **** /**
1078:CMSIS/CM3/CoreSupport/core_cm3.h ****  * @brief  Return the Process Stack Pointer
1079:CMSIS/CM3/CoreSupport/core_cm3.h ****  *
1080:CMSIS/CM3/CoreSupport/core_cm3.h ****  * @return ProcessStackPointer
1081:CMSIS/CM3/CoreSupport/core_cm3.h ****  *
1082:CMSIS/CM3/CoreSupport/core_cm3.h ****  * Return the actual process stack pointer
1083:CMSIS/CM3/CoreSupport/core_cm3.h ****  */
1084:CMSIS/CM3/CoreSupport/core_cm3.h **** extern uint32_t __get_PSP(void);
1085:CMSIS/CM3/CoreSupport/core_cm3.h **** 
1086:CMSIS/CM3/CoreSupport/core_cm3.h **** /**
1087:CMSIS/CM3/CoreSupport/core_cm3.h ****  * @brief  Set the Process Stack Pointer
1088:CMSIS/CM3/CoreSupport/core_cm3.h ****  *
1089:CMSIS/CM3/CoreSupport/core_cm3.h ****  * @param  topOfProcStack  Process Stack Pointer
1090:CMSIS/CM3/CoreSupport/core_cm3.h ****  *
1091:CMSIS/CM3/CoreSupport/core_cm3.h ****  * Assign the value ProcessStackPointer to the MSP 
1092:CMSIS/CM3/CoreSupport/core_cm3.h ****  * (process stack pointer) Cortex processor register
1093:CMSIS/CM3/CoreSupport/core_cm3.h ****  */
1094:CMSIS/CM3/CoreSupport/core_cm3.h **** extern void __set_PSP(uint32_t topOfProcStack);
1095:CMSIS/CM3/CoreSupport/core_cm3.h **** 
1096:CMSIS/CM3/CoreSupport/core_cm3.h **** /**
1097:CMSIS/CM3/CoreSupport/core_cm3.h ****  * @brief  Return the Main Stack Pointer
1098:CMSIS/CM3/CoreSupport/core_cm3.h ****  *
1099:CMSIS/CM3/CoreSupport/core_cm3.h ****  * @return Main Stack Pointer
1100:CMSIS/CM3/CoreSupport/core_cm3.h ****  *
ARM GAS  /tmp/ccaw1hg7.s 			page 21


1101:CMSIS/CM3/CoreSupport/core_cm3.h ****  * Return the current value of the MSP (main stack pointer)
1102:CMSIS/CM3/CoreSupport/core_cm3.h ****  * Cortex processor register
1103:CMSIS/CM3/CoreSupport/core_cm3.h ****  */
1104:CMSIS/CM3/CoreSupport/core_cm3.h **** extern uint32_t __get_MSP(void);
1105:CMSIS/CM3/CoreSupport/core_cm3.h **** 
1106:CMSIS/CM3/CoreSupport/core_cm3.h **** /**
1107:CMSIS/CM3/CoreSupport/core_cm3.h ****  * @brief  Set the Main Stack Pointer
1108:CMSIS/CM3/CoreSupport/core_cm3.h ****  *
1109:CMSIS/CM3/CoreSupport/core_cm3.h ****  * @param  topOfMainStack  Main Stack Pointer
1110:CMSIS/CM3/CoreSupport/core_cm3.h ****  *
1111:CMSIS/CM3/CoreSupport/core_cm3.h ****  * Assign the value mainStackPointer to the MSP 
1112:CMSIS/CM3/CoreSupport/core_cm3.h ****  * (main stack pointer) Cortex processor register
1113:CMSIS/CM3/CoreSupport/core_cm3.h ****  */
1114:CMSIS/CM3/CoreSupport/core_cm3.h **** extern void __set_MSP(uint32_t topOfMainStack);
1115:CMSIS/CM3/CoreSupport/core_cm3.h **** 
1116:CMSIS/CM3/CoreSupport/core_cm3.h **** /**
1117:CMSIS/CM3/CoreSupport/core_cm3.h ****  * @brief  Reverse byte order in unsigned short value
1118:CMSIS/CM3/CoreSupport/core_cm3.h ****  *
1119:CMSIS/CM3/CoreSupport/core_cm3.h ****  * @param  value  value to reverse
1120:CMSIS/CM3/CoreSupport/core_cm3.h ****  * @return        reversed value
1121:CMSIS/CM3/CoreSupport/core_cm3.h ****  *
1122:CMSIS/CM3/CoreSupport/core_cm3.h ****  * Reverse byte order in unsigned short value
1123:CMSIS/CM3/CoreSupport/core_cm3.h ****  */
1124:CMSIS/CM3/CoreSupport/core_cm3.h **** extern uint32_t __REV16(uint16_t value);
1125:CMSIS/CM3/CoreSupport/core_cm3.h **** 
1126:CMSIS/CM3/CoreSupport/core_cm3.h **** /**
1127:CMSIS/CM3/CoreSupport/core_cm3.h ****  * @brief  Reverse bit order of value
1128:CMSIS/CM3/CoreSupport/core_cm3.h ****  *
1129:CMSIS/CM3/CoreSupport/core_cm3.h ****  * @param  value  value to reverse
1130:CMSIS/CM3/CoreSupport/core_cm3.h ****  * @return        reversed value
1131:CMSIS/CM3/CoreSupport/core_cm3.h ****  *
1132:CMSIS/CM3/CoreSupport/core_cm3.h ****  * Reverse bit order of value
1133:CMSIS/CM3/CoreSupport/core_cm3.h ****  */
1134:CMSIS/CM3/CoreSupport/core_cm3.h **** extern uint32_t __RBIT(uint32_t value);
1135:CMSIS/CM3/CoreSupport/core_cm3.h **** 
1136:CMSIS/CM3/CoreSupport/core_cm3.h **** /**
1137:CMSIS/CM3/CoreSupport/core_cm3.h ****  * @brief  LDR Exclusive (8 bit)
1138:CMSIS/CM3/CoreSupport/core_cm3.h ****  *
1139:CMSIS/CM3/CoreSupport/core_cm3.h ****  * @param  *addr  address pointer
1140:CMSIS/CM3/CoreSupport/core_cm3.h ****  * @return        value of (*address)
1141:CMSIS/CM3/CoreSupport/core_cm3.h ****  *
1142:CMSIS/CM3/CoreSupport/core_cm3.h ****  * Exclusive LDR command for 8 bit values)
1143:CMSIS/CM3/CoreSupport/core_cm3.h ****  */
1144:CMSIS/CM3/CoreSupport/core_cm3.h **** extern uint8_t __LDREXB(uint8_t *addr);
1145:CMSIS/CM3/CoreSupport/core_cm3.h **** 
1146:CMSIS/CM3/CoreSupport/core_cm3.h **** /**
1147:CMSIS/CM3/CoreSupport/core_cm3.h ****  * @brief  LDR Exclusive (16 bit)
1148:CMSIS/CM3/CoreSupport/core_cm3.h ****  *
1149:CMSIS/CM3/CoreSupport/core_cm3.h ****  * @param  *addr  address pointer
1150:CMSIS/CM3/CoreSupport/core_cm3.h ****  * @return        value of (*address)
1151:CMSIS/CM3/CoreSupport/core_cm3.h ****  *
1152:CMSIS/CM3/CoreSupport/core_cm3.h ****  * Exclusive LDR command for 16 bit values
1153:CMSIS/CM3/CoreSupport/core_cm3.h ****  */
1154:CMSIS/CM3/CoreSupport/core_cm3.h **** extern uint16_t __LDREXH(uint16_t *addr);
1155:CMSIS/CM3/CoreSupport/core_cm3.h **** 
1156:CMSIS/CM3/CoreSupport/core_cm3.h **** /**
1157:CMSIS/CM3/CoreSupport/core_cm3.h ****  * @brief  LDR Exclusive (32 bit)
ARM GAS  /tmp/ccaw1hg7.s 			page 22


1158:CMSIS/CM3/CoreSupport/core_cm3.h ****  *
1159:CMSIS/CM3/CoreSupport/core_cm3.h ****  * @param  *addr  address pointer
1160:CMSIS/CM3/CoreSupport/core_cm3.h ****  * @return        value of (*address)
1161:CMSIS/CM3/CoreSupport/core_cm3.h ****  *
1162:CMSIS/CM3/CoreSupport/core_cm3.h ****  * Exclusive LDR command for 32 bit values
1163:CMSIS/CM3/CoreSupport/core_cm3.h ****  */
1164:CMSIS/CM3/CoreSupport/core_cm3.h **** extern uint32_t __LDREXW(uint32_t *addr);
1165:CMSIS/CM3/CoreSupport/core_cm3.h **** 
1166:CMSIS/CM3/CoreSupport/core_cm3.h **** /**
1167:CMSIS/CM3/CoreSupport/core_cm3.h ****  * @brief  STR Exclusive (8 bit)
1168:CMSIS/CM3/CoreSupport/core_cm3.h ****  *
1169:CMSIS/CM3/CoreSupport/core_cm3.h ****  * @param  value  value to store
1170:CMSIS/CM3/CoreSupport/core_cm3.h ****  * @param  *addr  address pointer
1171:CMSIS/CM3/CoreSupport/core_cm3.h ****  * @return        successful / failed
1172:CMSIS/CM3/CoreSupport/core_cm3.h ****  *
1173:CMSIS/CM3/CoreSupport/core_cm3.h ****  * Exclusive STR command for 8 bit values
1174:CMSIS/CM3/CoreSupport/core_cm3.h ****  */
1175:CMSIS/CM3/CoreSupport/core_cm3.h **** extern uint32_t __STREXB(uint8_t value, uint8_t *addr);
1176:CMSIS/CM3/CoreSupport/core_cm3.h **** 
1177:CMSIS/CM3/CoreSupport/core_cm3.h **** /**
1178:CMSIS/CM3/CoreSupport/core_cm3.h ****  * @brief  STR Exclusive (16 bit)
1179:CMSIS/CM3/CoreSupport/core_cm3.h ****  *
1180:CMSIS/CM3/CoreSupport/core_cm3.h ****  * @param  value  value to store
1181:CMSIS/CM3/CoreSupport/core_cm3.h ****  * @param  *addr  address pointer
1182:CMSIS/CM3/CoreSupport/core_cm3.h ****  * @return        successful / failed
1183:CMSIS/CM3/CoreSupport/core_cm3.h ****  *
1184:CMSIS/CM3/CoreSupport/core_cm3.h ****  * Exclusive STR command for 16 bit values
1185:CMSIS/CM3/CoreSupport/core_cm3.h ****  */
1186:CMSIS/CM3/CoreSupport/core_cm3.h **** extern uint32_t __STREXH(uint16_t value, uint16_t *addr);
1187:CMSIS/CM3/CoreSupport/core_cm3.h **** 
1188:CMSIS/CM3/CoreSupport/core_cm3.h **** /**
1189:CMSIS/CM3/CoreSupport/core_cm3.h ****  * @brief  STR Exclusive (32 bit)
1190:CMSIS/CM3/CoreSupport/core_cm3.h ****  *
1191:CMSIS/CM3/CoreSupport/core_cm3.h ****  * @param  value  value to store
1192:CMSIS/CM3/CoreSupport/core_cm3.h ****  * @param  *addr  address pointer
1193:CMSIS/CM3/CoreSupport/core_cm3.h ****  * @return        successful / failed
1194:CMSIS/CM3/CoreSupport/core_cm3.h ****  *
1195:CMSIS/CM3/CoreSupport/core_cm3.h ****  * Exclusive STR command for 32 bit values
1196:CMSIS/CM3/CoreSupport/core_cm3.h ****  */
1197:CMSIS/CM3/CoreSupport/core_cm3.h **** extern uint32_t __STREXW(uint32_t value, uint32_t *addr);
1198:CMSIS/CM3/CoreSupport/core_cm3.h **** 
1199:CMSIS/CM3/CoreSupport/core_cm3.h **** 
1200:CMSIS/CM3/CoreSupport/core_cm3.h **** 
1201:CMSIS/CM3/CoreSupport/core_cm3.h **** #elif (defined (__GNUC__)) /*------------------ GNU Compiler ---------------------*/
1202:CMSIS/CM3/CoreSupport/core_cm3.h **** /* GNU gcc specific functions */
1203:CMSIS/CM3/CoreSupport/core_cm3.h **** 
1204:CMSIS/CM3/CoreSupport/core_cm3.h **** static __INLINE void __enable_irq()               { __ASM volatile ("cpsie i"); }
1205:CMSIS/CM3/CoreSupport/core_cm3.h **** static __INLINE void __disable_irq()              { __ASM volatile ("cpsid i"); }
1206:CMSIS/CM3/CoreSupport/core_cm3.h **** 
1207:CMSIS/CM3/CoreSupport/core_cm3.h **** static __INLINE void __enable_fault_irq()         { __ASM volatile ("cpsie f"); }
1208:CMSIS/CM3/CoreSupport/core_cm3.h **** static __INLINE void __disable_fault_irq()        { __ASM volatile ("cpsid f"); }
1209:CMSIS/CM3/CoreSupport/core_cm3.h **** 
1210:CMSIS/CM3/CoreSupport/core_cm3.h **** static __INLINE void __NOP()                      { __ASM volatile ("nop"); }
1211:CMSIS/CM3/CoreSupport/core_cm3.h **** static __INLINE void __WFI()                      { __ASM volatile ("wfi"); }
1212:CMSIS/CM3/CoreSupport/core_cm3.h **** static __INLINE void __WFE()                      { __ASM volatile ("wfe"); }
1213:CMSIS/CM3/CoreSupport/core_cm3.h **** static __INLINE void __SEV()                      { __ASM volatile ("sev"); }
1214:CMSIS/CM3/CoreSupport/core_cm3.h **** static __INLINE void __ISB()                      { __ASM volatile ("isb"); }
ARM GAS  /tmp/ccaw1hg7.s 			page 23


1215:CMSIS/CM3/CoreSupport/core_cm3.h **** static __INLINE void __DSB()                      { __ASM volatile ("dsb"); }
1216:CMSIS/CM3/CoreSupport/core_cm3.h **** static __INLINE void __DMB()                      { __ASM volatile ("dmb"); }
1217:CMSIS/CM3/CoreSupport/core_cm3.h **** static __INLINE void __CLREX()                    { __ASM volatile ("clrex"); }
1218:CMSIS/CM3/CoreSupport/core_cm3.h **** 
1219:CMSIS/CM3/CoreSupport/core_cm3.h **** 
1220:CMSIS/CM3/CoreSupport/core_cm3.h **** /**
1221:CMSIS/CM3/CoreSupport/core_cm3.h ****  * @brief  Return the Process Stack Pointer
1222:CMSIS/CM3/CoreSupport/core_cm3.h ****  *
1223:CMSIS/CM3/CoreSupport/core_cm3.h ****  * @return ProcessStackPointer
1224:CMSIS/CM3/CoreSupport/core_cm3.h ****  *
1225:CMSIS/CM3/CoreSupport/core_cm3.h ****  * Return the actual process stack pointer
1226:CMSIS/CM3/CoreSupport/core_cm3.h ****  */
1227:CMSIS/CM3/CoreSupport/core_cm3.h **** extern uint32_t __get_PSP(void);
1228:CMSIS/CM3/CoreSupport/core_cm3.h **** 
1229:CMSIS/CM3/CoreSupport/core_cm3.h **** /**
1230:CMSIS/CM3/CoreSupport/core_cm3.h ****  * @brief  Set the Process Stack Pointer
1231:CMSIS/CM3/CoreSupport/core_cm3.h ****  *
1232:CMSIS/CM3/CoreSupport/core_cm3.h ****  * @param  topOfProcStack  Process Stack Pointer
1233:CMSIS/CM3/CoreSupport/core_cm3.h ****  *
1234:CMSIS/CM3/CoreSupport/core_cm3.h ****  * Assign the value ProcessStackPointer to the MSP 
1235:CMSIS/CM3/CoreSupport/core_cm3.h ****  * (process stack pointer) Cortex processor register
1236:CMSIS/CM3/CoreSupport/core_cm3.h ****  */
1237:CMSIS/CM3/CoreSupport/core_cm3.h **** extern void __set_PSP(uint32_t topOfProcStack);
1238:CMSIS/CM3/CoreSupport/core_cm3.h **** 
1239:CMSIS/CM3/CoreSupport/core_cm3.h **** /**
1240:CMSIS/CM3/CoreSupport/core_cm3.h ****  * @brief  Return the Main Stack Pointer
1241:CMSIS/CM3/CoreSupport/core_cm3.h ****  *
1242:CMSIS/CM3/CoreSupport/core_cm3.h ****  * @return Main Stack Pointer
1243:CMSIS/CM3/CoreSupport/core_cm3.h ****  *
1244:CMSIS/CM3/CoreSupport/core_cm3.h ****  * Return the current value of the MSP (main stack pointer)
1245:CMSIS/CM3/CoreSupport/core_cm3.h ****  * Cortex processor register
1246:CMSIS/CM3/CoreSupport/core_cm3.h ****  */
1247:CMSIS/CM3/CoreSupport/core_cm3.h **** extern uint32_t __get_MSP(void);
1248:CMSIS/CM3/CoreSupport/core_cm3.h **** 
1249:CMSIS/CM3/CoreSupport/core_cm3.h **** /**
1250:CMSIS/CM3/CoreSupport/core_cm3.h ****  * @brief  Set the Main Stack Pointer
1251:CMSIS/CM3/CoreSupport/core_cm3.h ****  *
1252:CMSIS/CM3/CoreSupport/core_cm3.h ****  * @param  topOfMainStack  Main Stack Pointer
1253:CMSIS/CM3/CoreSupport/core_cm3.h ****  *
1254:CMSIS/CM3/CoreSupport/core_cm3.h ****  * Assign the value mainStackPointer to the MSP 
1255:CMSIS/CM3/CoreSupport/core_cm3.h ****  * (main stack pointer) Cortex processor register
1256:CMSIS/CM3/CoreSupport/core_cm3.h ****  */
1257:CMSIS/CM3/CoreSupport/core_cm3.h **** extern void __set_MSP(uint32_t topOfMainStack);
1258:CMSIS/CM3/CoreSupport/core_cm3.h **** 
1259:CMSIS/CM3/CoreSupport/core_cm3.h **** /**
1260:CMSIS/CM3/CoreSupport/core_cm3.h ****  * @brief  Return the Base Priority value
1261:CMSIS/CM3/CoreSupport/core_cm3.h ****  *
1262:CMSIS/CM3/CoreSupport/core_cm3.h ****  * @return BasePriority
1263:CMSIS/CM3/CoreSupport/core_cm3.h ****  *
1264:CMSIS/CM3/CoreSupport/core_cm3.h ****  * Return the content of the base priority register
1265:CMSIS/CM3/CoreSupport/core_cm3.h ****  */
1266:CMSIS/CM3/CoreSupport/core_cm3.h **** extern uint32_t __get_BASEPRI(void);
1267:CMSIS/CM3/CoreSupport/core_cm3.h **** 
1268:CMSIS/CM3/CoreSupport/core_cm3.h **** /**
1269:CMSIS/CM3/CoreSupport/core_cm3.h ****  * @brief  Set the Base Priority value
1270:CMSIS/CM3/CoreSupport/core_cm3.h ****  *
1271:CMSIS/CM3/CoreSupport/core_cm3.h ****  * @param  basePri  BasePriority
ARM GAS  /tmp/ccaw1hg7.s 			page 24


1272:CMSIS/CM3/CoreSupport/core_cm3.h ****  *
1273:CMSIS/CM3/CoreSupport/core_cm3.h ****  * Set the base priority register
1274:CMSIS/CM3/CoreSupport/core_cm3.h ****  */
1275:CMSIS/CM3/CoreSupport/core_cm3.h **** extern void __set_BASEPRI(uint32_t basePri);
1276:CMSIS/CM3/CoreSupport/core_cm3.h **** 
1277:CMSIS/CM3/CoreSupport/core_cm3.h **** /**
1278:CMSIS/CM3/CoreSupport/core_cm3.h ****  * @brief  Return the Priority Mask value
1279:CMSIS/CM3/CoreSupport/core_cm3.h ****  *
1280:CMSIS/CM3/CoreSupport/core_cm3.h ****  * @return PriMask
1281:CMSIS/CM3/CoreSupport/core_cm3.h ****  *
1282:CMSIS/CM3/CoreSupport/core_cm3.h ****  * Return state of the priority mask bit from the priority mask register
1283:CMSIS/CM3/CoreSupport/core_cm3.h ****  */
1284:CMSIS/CM3/CoreSupport/core_cm3.h **** extern uint32_t  __get_PRIMASK(void);
1285:CMSIS/CM3/CoreSupport/core_cm3.h **** 
1286:CMSIS/CM3/CoreSupport/core_cm3.h **** /**
1287:CMSIS/CM3/CoreSupport/core_cm3.h ****  * @brief  Set the Priority Mask value
1288:CMSIS/CM3/CoreSupport/core_cm3.h ****  *
1289:CMSIS/CM3/CoreSupport/core_cm3.h ****  * @param  priMask  PriMask
1290:CMSIS/CM3/CoreSupport/core_cm3.h ****  *
1291:CMSIS/CM3/CoreSupport/core_cm3.h ****  * Set the priority mask bit in the priority mask register
1292:CMSIS/CM3/CoreSupport/core_cm3.h ****  */
1293:CMSIS/CM3/CoreSupport/core_cm3.h **** extern void __set_PRIMASK(uint32_t priMask);
1294:CMSIS/CM3/CoreSupport/core_cm3.h **** 
1295:CMSIS/CM3/CoreSupport/core_cm3.h **** /**
1296:CMSIS/CM3/CoreSupport/core_cm3.h ****  * @brief  Return the Fault Mask value
1297:CMSIS/CM3/CoreSupport/core_cm3.h ****  *
1298:CMSIS/CM3/CoreSupport/core_cm3.h ****  * @return FaultMask
1299:CMSIS/CM3/CoreSupport/core_cm3.h ****  *
1300:CMSIS/CM3/CoreSupport/core_cm3.h ****  * Return the content of the fault mask register
1301:CMSIS/CM3/CoreSupport/core_cm3.h ****  */
1302:CMSIS/CM3/CoreSupport/core_cm3.h **** extern uint32_t __get_FAULTMASK(void);
1303:CMSIS/CM3/CoreSupport/core_cm3.h **** 
1304:CMSIS/CM3/CoreSupport/core_cm3.h **** /**
1305:CMSIS/CM3/CoreSupport/core_cm3.h ****  * @brief  Set the Fault Mask value
1306:CMSIS/CM3/CoreSupport/core_cm3.h ****  *
1307:CMSIS/CM3/CoreSupport/core_cm3.h ****  * @param  faultMask  faultMask value
1308:CMSIS/CM3/CoreSupport/core_cm3.h ****  *
1309:CMSIS/CM3/CoreSupport/core_cm3.h ****  * Set the fault mask register
1310:CMSIS/CM3/CoreSupport/core_cm3.h ****  */
1311:CMSIS/CM3/CoreSupport/core_cm3.h **** extern void __set_FAULTMASK(uint32_t faultMask);
1312:CMSIS/CM3/CoreSupport/core_cm3.h **** 
1313:CMSIS/CM3/CoreSupport/core_cm3.h **** /**
1314:CMSIS/CM3/CoreSupport/core_cm3.h ****  * @brief  Return the Control Register value
1315:CMSIS/CM3/CoreSupport/core_cm3.h **** * 
1316:CMSIS/CM3/CoreSupport/core_cm3.h **** *  @return Control value
1317:CMSIS/CM3/CoreSupport/core_cm3.h ****  *
1318:CMSIS/CM3/CoreSupport/core_cm3.h ****  * Return the content of the control register
1319:CMSIS/CM3/CoreSupport/core_cm3.h ****  */
1320:CMSIS/CM3/CoreSupport/core_cm3.h **** extern uint32_t __get_CONTROL(void);
1321:CMSIS/CM3/CoreSupport/core_cm3.h **** 
1322:CMSIS/CM3/CoreSupport/core_cm3.h **** /**
1323:CMSIS/CM3/CoreSupport/core_cm3.h ****  * @brief  Set the Control Register value
1324:CMSIS/CM3/CoreSupport/core_cm3.h ****  *
1325:CMSIS/CM3/CoreSupport/core_cm3.h ****  * @param  control  Control value
1326:CMSIS/CM3/CoreSupport/core_cm3.h ****  *
1327:CMSIS/CM3/CoreSupport/core_cm3.h ****  * Set the control register
1328:CMSIS/CM3/CoreSupport/core_cm3.h ****  */
ARM GAS  /tmp/ccaw1hg7.s 			page 25


1329:CMSIS/CM3/CoreSupport/core_cm3.h **** extern void __set_CONTROL(uint32_t control);
1330:CMSIS/CM3/CoreSupport/core_cm3.h **** 
1331:CMSIS/CM3/CoreSupport/core_cm3.h **** /**
1332:CMSIS/CM3/CoreSupport/core_cm3.h ****  * @brief  Reverse byte order in integer value
1333:CMSIS/CM3/CoreSupport/core_cm3.h ****  *
1334:CMSIS/CM3/CoreSupport/core_cm3.h ****  * @param  value  value to reverse
1335:CMSIS/CM3/CoreSupport/core_cm3.h ****  * @return        reversed value
1336:CMSIS/CM3/CoreSupport/core_cm3.h ****  *
1337:CMSIS/CM3/CoreSupport/core_cm3.h ****  * Reverse byte order in integer value
1338:CMSIS/CM3/CoreSupport/core_cm3.h ****  */
1339:CMSIS/CM3/CoreSupport/core_cm3.h **** extern uint32_t __REV(uint32_t value);
1340:CMSIS/CM3/CoreSupport/core_cm3.h **** 
1341:CMSIS/CM3/CoreSupport/core_cm3.h **** /**
1342:CMSIS/CM3/CoreSupport/core_cm3.h ****  * @brief  Reverse byte order in unsigned short value
1343:CMSIS/CM3/CoreSupport/core_cm3.h ****  *
1344:CMSIS/CM3/CoreSupport/core_cm3.h ****  * @param  value  value to reverse
1345:CMSIS/CM3/CoreSupport/core_cm3.h ****  * @return        reversed value
1346:CMSIS/CM3/CoreSupport/core_cm3.h ****  *
1347:CMSIS/CM3/CoreSupport/core_cm3.h ****  * Reverse byte order in unsigned short value
1348:CMSIS/CM3/CoreSupport/core_cm3.h ****  */
1349:CMSIS/CM3/CoreSupport/core_cm3.h **** extern uint32_t __REV16(uint16_t value);
1350:CMSIS/CM3/CoreSupport/core_cm3.h **** 
1351:CMSIS/CM3/CoreSupport/core_cm3.h **** /**
1352:CMSIS/CM3/CoreSupport/core_cm3.h ****  * @brief  Reverse byte order in signed short value with sign extension to integer
1353:CMSIS/CM3/CoreSupport/core_cm3.h ****  *
1354:CMSIS/CM3/CoreSupport/core_cm3.h ****  * @param  value  value to reverse
1355:CMSIS/CM3/CoreSupport/core_cm3.h ****  * @return        reversed value
1356:CMSIS/CM3/CoreSupport/core_cm3.h ****  *
1357:CMSIS/CM3/CoreSupport/core_cm3.h ****  * Reverse byte order in signed short value with sign extension to integer
1358:CMSIS/CM3/CoreSupport/core_cm3.h ****  */
1359:CMSIS/CM3/CoreSupport/core_cm3.h **** extern int32_t __REVSH(int16_t value);
1360:CMSIS/CM3/CoreSupport/core_cm3.h **** 
1361:CMSIS/CM3/CoreSupport/core_cm3.h **** /**
1362:CMSIS/CM3/CoreSupport/core_cm3.h ****  * @brief  Reverse bit order of value
1363:CMSIS/CM3/CoreSupport/core_cm3.h ****  *
1364:CMSIS/CM3/CoreSupport/core_cm3.h ****  * @param  value  value to reverse
1365:CMSIS/CM3/CoreSupport/core_cm3.h ****  * @return        reversed value
1366:CMSIS/CM3/CoreSupport/core_cm3.h ****  *
1367:CMSIS/CM3/CoreSupport/core_cm3.h ****  * Reverse bit order of value
1368:CMSIS/CM3/CoreSupport/core_cm3.h ****  */
1369:CMSIS/CM3/CoreSupport/core_cm3.h **** extern uint32_t __RBIT(uint32_t value);
1370:CMSIS/CM3/CoreSupport/core_cm3.h **** 
1371:CMSIS/CM3/CoreSupport/core_cm3.h **** /**
1372:CMSIS/CM3/CoreSupport/core_cm3.h ****  * @brief  LDR Exclusive (8 bit)
1373:CMSIS/CM3/CoreSupport/core_cm3.h ****  *
1374:CMSIS/CM3/CoreSupport/core_cm3.h ****  * @param  *addr  address pointer
1375:CMSIS/CM3/CoreSupport/core_cm3.h ****  * @return        value of (*address)
1376:CMSIS/CM3/CoreSupport/core_cm3.h ****  *
1377:CMSIS/CM3/CoreSupport/core_cm3.h ****  * Exclusive LDR command for 8 bit value
1378:CMSIS/CM3/CoreSupport/core_cm3.h ****  */
1379:CMSIS/CM3/CoreSupport/core_cm3.h **** extern uint8_t __LDREXB(uint8_t *addr);
1380:CMSIS/CM3/CoreSupport/core_cm3.h **** 
1381:CMSIS/CM3/CoreSupport/core_cm3.h **** /**
1382:CMSIS/CM3/CoreSupport/core_cm3.h ****  * @brief  LDR Exclusive (16 bit)
1383:CMSIS/CM3/CoreSupport/core_cm3.h ****  *
1384:CMSIS/CM3/CoreSupport/core_cm3.h ****  * @param  *addr  address pointer
1385:CMSIS/CM3/CoreSupport/core_cm3.h ****  * @return        value of (*address)
ARM GAS  /tmp/ccaw1hg7.s 			page 26


1386:CMSIS/CM3/CoreSupport/core_cm3.h ****  *
1387:CMSIS/CM3/CoreSupport/core_cm3.h ****  * Exclusive LDR command for 16 bit values
1388:CMSIS/CM3/CoreSupport/core_cm3.h ****  */
1389:CMSIS/CM3/CoreSupport/core_cm3.h **** extern uint16_t __LDREXH(uint16_t *addr);
1390:CMSIS/CM3/CoreSupport/core_cm3.h **** 
1391:CMSIS/CM3/CoreSupport/core_cm3.h **** /**
1392:CMSIS/CM3/CoreSupport/core_cm3.h ****  * @brief  LDR Exclusive (32 bit)
1393:CMSIS/CM3/CoreSupport/core_cm3.h ****  *
1394:CMSIS/CM3/CoreSupport/core_cm3.h ****  * @param  *addr  address pointer
1395:CMSIS/CM3/CoreSupport/core_cm3.h ****  * @return        value of (*address)
1396:CMSIS/CM3/CoreSupport/core_cm3.h ****  *
1397:CMSIS/CM3/CoreSupport/core_cm3.h ****  * Exclusive LDR command for 32 bit values
1398:CMSIS/CM3/CoreSupport/core_cm3.h ****  */
1399:CMSIS/CM3/CoreSupport/core_cm3.h **** extern uint32_t __LDREXW(uint32_t *addr);
1400:CMSIS/CM3/CoreSupport/core_cm3.h **** 
1401:CMSIS/CM3/CoreSupport/core_cm3.h **** /**
1402:CMSIS/CM3/CoreSupport/core_cm3.h ****  * @brief  STR Exclusive (8 bit)
1403:CMSIS/CM3/CoreSupport/core_cm3.h ****  *
1404:CMSIS/CM3/CoreSupport/core_cm3.h ****  * @param  value  value to store
1405:CMSIS/CM3/CoreSupport/core_cm3.h ****  * @param  *addr  address pointer
1406:CMSIS/CM3/CoreSupport/core_cm3.h ****  * @return        successful / failed
1407:CMSIS/CM3/CoreSupport/core_cm3.h ****  *
1408:CMSIS/CM3/CoreSupport/core_cm3.h ****  * Exclusive STR command for 8 bit values
1409:CMSIS/CM3/CoreSupport/core_cm3.h ****  */
1410:CMSIS/CM3/CoreSupport/core_cm3.h **** extern uint32_t __STREXB(uint8_t value, uint8_t *addr);
1411:CMSIS/CM3/CoreSupport/core_cm3.h **** 
1412:CMSIS/CM3/CoreSupport/core_cm3.h **** /**
1413:CMSIS/CM3/CoreSupport/core_cm3.h ****  * @brief  STR Exclusive (16 bit)
1414:CMSIS/CM3/CoreSupport/core_cm3.h ****  *
1415:CMSIS/CM3/CoreSupport/core_cm3.h ****  * @param  value  value to store
1416:CMSIS/CM3/CoreSupport/core_cm3.h ****  * @param  *addr  address pointer
1417:CMSIS/CM3/CoreSupport/core_cm3.h ****  * @return        successful / failed
1418:CMSIS/CM3/CoreSupport/core_cm3.h ****  *
1419:CMSIS/CM3/CoreSupport/core_cm3.h ****  * Exclusive STR command for 16 bit values
1420:CMSIS/CM3/CoreSupport/core_cm3.h ****  */
1421:CMSIS/CM3/CoreSupport/core_cm3.h **** extern uint32_t __STREXH(uint16_t value, uint16_t *addr);
1422:CMSIS/CM3/CoreSupport/core_cm3.h **** 
1423:CMSIS/CM3/CoreSupport/core_cm3.h **** /**
1424:CMSIS/CM3/CoreSupport/core_cm3.h ****  * @brief  STR Exclusive (32 bit)
1425:CMSIS/CM3/CoreSupport/core_cm3.h ****  *
1426:CMSIS/CM3/CoreSupport/core_cm3.h ****  * @param  value  value to store
1427:CMSIS/CM3/CoreSupport/core_cm3.h ****  * @param  *addr  address pointer
1428:CMSIS/CM3/CoreSupport/core_cm3.h ****  * @return        successful / failed
1429:CMSIS/CM3/CoreSupport/core_cm3.h ****  *
1430:CMSIS/CM3/CoreSupport/core_cm3.h ****  * Exclusive STR command for 32 bit values
1431:CMSIS/CM3/CoreSupport/core_cm3.h ****  */
1432:CMSIS/CM3/CoreSupport/core_cm3.h **** extern uint32_t __STREXW(uint32_t value, uint32_t *addr);
1433:CMSIS/CM3/CoreSupport/core_cm3.h **** 
1434:CMSIS/CM3/CoreSupport/core_cm3.h **** 
1435:CMSIS/CM3/CoreSupport/core_cm3.h **** #elif (defined (__TASKING__)) /*------------------ TASKING Compiler ---------------------*/
1436:CMSIS/CM3/CoreSupport/core_cm3.h **** /* TASKING carm specific functions */
1437:CMSIS/CM3/CoreSupport/core_cm3.h **** 
1438:CMSIS/CM3/CoreSupport/core_cm3.h **** /*
1439:CMSIS/CM3/CoreSupport/core_cm3.h ****  * The CMSIS functions have been implemented as intrinsics in the compiler.
1440:CMSIS/CM3/CoreSupport/core_cm3.h ****  * Please use "carm -?i" to get an up to date list of all instrinsics,
1441:CMSIS/CM3/CoreSupport/core_cm3.h ****  * Including the CMSIS ones.
1442:CMSIS/CM3/CoreSupport/core_cm3.h ****  */
ARM GAS  /tmp/ccaw1hg7.s 			page 27


1443:CMSIS/CM3/CoreSupport/core_cm3.h **** 
1444:CMSIS/CM3/CoreSupport/core_cm3.h **** #endif
1445:CMSIS/CM3/CoreSupport/core_cm3.h **** 
1446:CMSIS/CM3/CoreSupport/core_cm3.h **** 
1447:CMSIS/CM3/CoreSupport/core_cm3.h **** /** @addtogroup CMSIS_CM3_Core_FunctionInterface CMSIS CM3 Core Function Interface
1448:CMSIS/CM3/CoreSupport/core_cm3.h ****   Core  Function Interface containing:
1449:CMSIS/CM3/CoreSupport/core_cm3.h ****   - Core NVIC Functions
1450:CMSIS/CM3/CoreSupport/core_cm3.h ****   - Core SysTick Functions
1451:CMSIS/CM3/CoreSupport/core_cm3.h ****   - Core Reset Functions
1452:CMSIS/CM3/CoreSupport/core_cm3.h **** */
1453:CMSIS/CM3/CoreSupport/core_cm3.h **** /*@{*/
1454:CMSIS/CM3/CoreSupport/core_cm3.h **** 
1455:CMSIS/CM3/CoreSupport/core_cm3.h **** /* ##########################   NVIC functions  #################################### */
1456:CMSIS/CM3/CoreSupport/core_cm3.h **** 
1457:CMSIS/CM3/CoreSupport/core_cm3.h **** /**
1458:CMSIS/CM3/CoreSupport/core_cm3.h ****  * @brief  Set the Priority Grouping in NVIC Interrupt Controller
1459:CMSIS/CM3/CoreSupport/core_cm3.h ****  *
1460:CMSIS/CM3/CoreSupport/core_cm3.h ****  * @param  PriorityGroup is priority grouping field
1461:CMSIS/CM3/CoreSupport/core_cm3.h ****  *
1462:CMSIS/CM3/CoreSupport/core_cm3.h ****  * Set the priority grouping field using the required unlock sequence.
1463:CMSIS/CM3/CoreSupport/core_cm3.h ****  * The parameter priority_grouping is assigned to the field 
1464:CMSIS/CM3/CoreSupport/core_cm3.h ****  * SCB->AIRCR [10:8] PRIGROUP field. Only values from 0..7 are used.
1465:CMSIS/CM3/CoreSupport/core_cm3.h ****  * In case of a conflict between priority grouping and available
1466:CMSIS/CM3/CoreSupport/core_cm3.h ****  * priority bits (__NVIC_PRIO_BITS) the smallest possible priority group is set.
1467:CMSIS/CM3/CoreSupport/core_cm3.h ****  */
1468:CMSIS/CM3/CoreSupport/core_cm3.h **** static __INLINE void NVIC_SetPriorityGrouping(uint32_t PriorityGroup)
1469:CMSIS/CM3/CoreSupport/core_cm3.h **** {
1470:CMSIS/CM3/CoreSupport/core_cm3.h ****   uint32_t reg_value;
1471:CMSIS/CM3/CoreSupport/core_cm3.h ****   uint32_t PriorityGroupTmp = (PriorityGroup & 0x07);                         /* only values 0..7 a
1472:CMSIS/CM3/CoreSupport/core_cm3.h ****   
1473:CMSIS/CM3/CoreSupport/core_cm3.h ****   reg_value  =  SCB->AIRCR;                                                   /* read old register 
1474:CMSIS/CM3/CoreSupport/core_cm3.h ****   reg_value &= ~(SCB_AIRCR_VECTKEY_Msk | SCB_AIRCR_PRIGROUP_Msk);             /* clear bits to chan
1475:CMSIS/CM3/CoreSupport/core_cm3.h ****   reg_value  =  (reg_value                       |
1476:CMSIS/CM3/CoreSupport/core_cm3.h ****                 (0x5FA << SCB_AIRCR_VECTKEY_Pos) | 
1477:CMSIS/CM3/CoreSupport/core_cm3.h ****                 (PriorityGroupTmp << 8));                                     /* Insert write key a
1478:CMSIS/CM3/CoreSupport/core_cm3.h ****   SCB->AIRCR =  reg_value;
1479:CMSIS/CM3/CoreSupport/core_cm3.h **** }
1480:CMSIS/CM3/CoreSupport/core_cm3.h **** 
1481:CMSIS/CM3/CoreSupport/core_cm3.h **** /**
1482:CMSIS/CM3/CoreSupport/core_cm3.h ****  * @brief  Get the Priority Grouping from NVIC Interrupt Controller
1483:CMSIS/CM3/CoreSupport/core_cm3.h ****  *
1484:CMSIS/CM3/CoreSupport/core_cm3.h ****  * @return priority grouping field 
1485:CMSIS/CM3/CoreSupport/core_cm3.h ****  *
1486:CMSIS/CM3/CoreSupport/core_cm3.h ****  * Get the priority grouping from NVIC Interrupt Controller.
1487:CMSIS/CM3/CoreSupport/core_cm3.h ****  * priority grouping is SCB->AIRCR [10:8] PRIGROUP field.
1488:CMSIS/CM3/CoreSupport/core_cm3.h ****  */
1489:CMSIS/CM3/CoreSupport/core_cm3.h **** static __INLINE uint32_t NVIC_GetPriorityGrouping(void)
1490:CMSIS/CM3/CoreSupport/core_cm3.h **** {
1491:CMSIS/CM3/CoreSupport/core_cm3.h ****   return ((SCB->AIRCR & SCB_AIRCR_PRIGROUP_Msk) >> SCB_AIRCR_PRIGROUP_Pos);   /* read priority grou
1492:CMSIS/CM3/CoreSupport/core_cm3.h **** }
1493:CMSIS/CM3/CoreSupport/core_cm3.h **** 
1494:CMSIS/CM3/CoreSupport/core_cm3.h **** /**
1495:CMSIS/CM3/CoreSupport/core_cm3.h ****  * @brief  Enable Interrupt in NVIC Interrupt Controller
1496:CMSIS/CM3/CoreSupport/core_cm3.h ****  *
1497:CMSIS/CM3/CoreSupport/core_cm3.h ****  * @param  IRQn   The positive number of the external interrupt to enable
1498:CMSIS/CM3/CoreSupport/core_cm3.h ****  *
1499:CMSIS/CM3/CoreSupport/core_cm3.h ****  * Enable a device specific interupt in the NVIC interrupt controller.
ARM GAS  /tmp/ccaw1hg7.s 			page 28


1500:CMSIS/CM3/CoreSupport/core_cm3.h ****  * The interrupt number cannot be a negative value.
1501:CMSIS/CM3/CoreSupport/core_cm3.h ****  */
1502:CMSIS/CM3/CoreSupport/core_cm3.h **** static __INLINE void NVIC_EnableIRQ(IRQn_Type IRQn)
1503:CMSIS/CM3/CoreSupport/core_cm3.h **** {
1504:CMSIS/CM3/CoreSupport/core_cm3.h ****   NVIC->ISER[((uint32_t)(IRQn) >> 5)] = (1 << ((uint32_t)(IRQn) & 0x1F)); /* enable interrupt */
1505:CMSIS/CM3/CoreSupport/core_cm3.h **** }
1506:CMSIS/CM3/CoreSupport/core_cm3.h **** 
1507:CMSIS/CM3/CoreSupport/core_cm3.h **** /**
1508:CMSIS/CM3/CoreSupport/core_cm3.h ****  * @brief  Disable the interrupt line for external interrupt specified
1509:CMSIS/CM3/CoreSupport/core_cm3.h ****  * 
1510:CMSIS/CM3/CoreSupport/core_cm3.h ****  * @param  IRQn   The positive number of the external interrupt to disable
1511:CMSIS/CM3/CoreSupport/core_cm3.h ****  * 
1512:CMSIS/CM3/CoreSupport/core_cm3.h ****  * Disable a device specific interupt in the NVIC interrupt controller.
1513:CMSIS/CM3/CoreSupport/core_cm3.h ****  * The interrupt number cannot be a negative value.
1514:CMSIS/CM3/CoreSupport/core_cm3.h ****  */
1515:CMSIS/CM3/CoreSupport/core_cm3.h **** static __INLINE void NVIC_DisableIRQ(IRQn_Type IRQn)
1516:CMSIS/CM3/CoreSupport/core_cm3.h **** {
1517:CMSIS/CM3/CoreSupport/core_cm3.h ****   NVIC->ICER[((uint32_t)(IRQn) >> 5)] = (1 << ((uint32_t)(IRQn) & 0x1F)); /* disable interrupt */
1518:CMSIS/CM3/CoreSupport/core_cm3.h **** }
1519:CMSIS/CM3/CoreSupport/core_cm3.h **** 
1520:CMSIS/CM3/CoreSupport/core_cm3.h **** /**
1521:CMSIS/CM3/CoreSupport/core_cm3.h ****  * @brief  Read the interrupt pending bit for a device specific interrupt source
1522:CMSIS/CM3/CoreSupport/core_cm3.h ****  * 
1523:CMSIS/CM3/CoreSupport/core_cm3.h ****  * @param  IRQn    The number of the device specifc interrupt
1524:CMSIS/CM3/CoreSupport/core_cm3.h ****  * @return         1 = interrupt pending, 0 = interrupt not pending
1525:CMSIS/CM3/CoreSupport/core_cm3.h ****  *
1526:CMSIS/CM3/CoreSupport/core_cm3.h ****  * Read the pending register in NVIC and return 1 if its status is pending, 
1527:CMSIS/CM3/CoreSupport/core_cm3.h ****  * otherwise it returns 0
1528:CMSIS/CM3/CoreSupport/core_cm3.h ****  */
1529:CMSIS/CM3/CoreSupport/core_cm3.h **** static __INLINE uint32_t NVIC_GetPendingIRQ(IRQn_Type IRQn)
1530:CMSIS/CM3/CoreSupport/core_cm3.h **** {
1531:CMSIS/CM3/CoreSupport/core_cm3.h ****   return((uint32_t) ((NVIC->ISPR[(uint32_t)(IRQn) >> 5] & (1 << ((uint32_t)(IRQn) & 0x1F)))?1:0)); 
1532:CMSIS/CM3/CoreSupport/core_cm3.h **** }
1533:CMSIS/CM3/CoreSupport/core_cm3.h **** 
1534:CMSIS/CM3/CoreSupport/core_cm3.h **** /**
1535:CMSIS/CM3/CoreSupport/core_cm3.h ****  * @brief  Set the pending bit for an external interrupt
1536:CMSIS/CM3/CoreSupport/core_cm3.h ****  * 
1537:CMSIS/CM3/CoreSupport/core_cm3.h ****  * @param  IRQn    The number of the interrupt for set pending
1538:CMSIS/CM3/CoreSupport/core_cm3.h ****  *
1539:CMSIS/CM3/CoreSupport/core_cm3.h ****  * Set the pending bit for the specified interrupt.
1540:CMSIS/CM3/CoreSupport/core_cm3.h ****  * The interrupt number cannot be a negative value.
1541:CMSIS/CM3/CoreSupport/core_cm3.h ****  */
1542:CMSIS/CM3/CoreSupport/core_cm3.h **** static __INLINE void NVIC_SetPendingIRQ(IRQn_Type IRQn)
1543:CMSIS/CM3/CoreSupport/core_cm3.h **** {
1544:CMSIS/CM3/CoreSupport/core_cm3.h ****   NVIC->ISPR[((uint32_t)(IRQn) >> 5)] = (1 << ((uint32_t)(IRQn) & 0x1F)); /* set interrupt pending 
1545:CMSIS/CM3/CoreSupport/core_cm3.h **** }
1546:CMSIS/CM3/CoreSupport/core_cm3.h **** 
1547:CMSIS/CM3/CoreSupport/core_cm3.h **** /**
1548:CMSIS/CM3/CoreSupport/core_cm3.h ****  * @brief  Clear the pending bit for an external interrupt
1549:CMSIS/CM3/CoreSupport/core_cm3.h ****  *
1550:CMSIS/CM3/CoreSupport/core_cm3.h ****  * @param  IRQn    The number of the interrupt for clear pending
1551:CMSIS/CM3/CoreSupport/core_cm3.h ****  *
1552:CMSIS/CM3/CoreSupport/core_cm3.h ****  * Clear the pending bit for the specified interrupt. 
1553:CMSIS/CM3/CoreSupport/core_cm3.h ****  * The interrupt number cannot be a negative value.
1554:CMSIS/CM3/CoreSupport/core_cm3.h ****  */
1555:CMSIS/CM3/CoreSupport/core_cm3.h **** static __INLINE void NVIC_ClearPendingIRQ(IRQn_Type IRQn)
1556:CMSIS/CM3/CoreSupport/core_cm3.h **** {
ARM GAS  /tmp/ccaw1hg7.s 			page 29


1557:CMSIS/CM3/CoreSupport/core_cm3.h ****   NVIC->ICPR[((uint32_t)(IRQn) >> 5)] = (1 << ((uint32_t)(IRQn) & 0x1F)); /* Clear pending interrup
1558:CMSIS/CM3/CoreSupport/core_cm3.h **** }
1559:CMSIS/CM3/CoreSupport/core_cm3.h **** 
1560:CMSIS/CM3/CoreSupport/core_cm3.h **** /**
1561:CMSIS/CM3/CoreSupport/core_cm3.h ****  * @brief  Read the active bit for an external interrupt
1562:CMSIS/CM3/CoreSupport/core_cm3.h ****  *
1563:CMSIS/CM3/CoreSupport/core_cm3.h ****  * @param  IRQn    The number of the interrupt for read active bit
1564:CMSIS/CM3/CoreSupport/core_cm3.h ****  * @return         1 = interrupt active, 0 = interrupt not active
1565:CMSIS/CM3/CoreSupport/core_cm3.h ****  *
1566:CMSIS/CM3/CoreSupport/core_cm3.h ****  * Read the active register in NVIC and returns 1 if its status is active, 
1567:CMSIS/CM3/CoreSupport/core_cm3.h ****  * otherwise it returns 0.
1568:CMSIS/CM3/CoreSupport/core_cm3.h ****  */
1569:CMSIS/CM3/CoreSupport/core_cm3.h **** static __INLINE uint32_t NVIC_GetActive(IRQn_Type IRQn)
1570:CMSIS/CM3/CoreSupport/core_cm3.h **** {
1571:CMSIS/CM3/CoreSupport/core_cm3.h ****   return((uint32_t)((NVIC->IABR[(uint32_t)(IRQn) >> 5] & (1 << ((uint32_t)(IRQn) & 0x1F)))?1:0)); /
1572:CMSIS/CM3/CoreSupport/core_cm3.h **** }
1573:CMSIS/CM3/CoreSupport/core_cm3.h **** 
1574:CMSIS/CM3/CoreSupport/core_cm3.h **** /**
1575:CMSIS/CM3/CoreSupport/core_cm3.h ****  * @brief  Set the priority for an interrupt
1576:CMSIS/CM3/CoreSupport/core_cm3.h ****  *
1577:CMSIS/CM3/CoreSupport/core_cm3.h ****  * @param  IRQn      The number of the interrupt for set priority
1578:CMSIS/CM3/CoreSupport/core_cm3.h ****  * @param  priority  The priority to set
1579:CMSIS/CM3/CoreSupport/core_cm3.h ****  *
1580:CMSIS/CM3/CoreSupport/core_cm3.h ****  * Set the priority for the specified interrupt. The interrupt 
1581:CMSIS/CM3/CoreSupport/core_cm3.h ****  * number can be positive to specify an external (device specific) 
1582:CMSIS/CM3/CoreSupport/core_cm3.h ****  * interrupt, or negative to specify an internal (core) interrupt.
1583:CMSIS/CM3/CoreSupport/core_cm3.h ****  *
1584:CMSIS/CM3/CoreSupport/core_cm3.h ****  * Note: The priority cannot be set for every core interrupt.
1585:CMSIS/CM3/CoreSupport/core_cm3.h ****  */
1586:CMSIS/CM3/CoreSupport/core_cm3.h **** static __INLINE void NVIC_SetPriority(IRQn_Type IRQn, uint32_t priority)
1587:CMSIS/CM3/CoreSupport/core_cm3.h **** {
1588:CMSIS/CM3/CoreSupport/core_cm3.h ****   if(IRQn < 0) {
1589:CMSIS/CM3/CoreSupport/core_cm3.h ****     SCB->SHP[((uint32_t)(IRQn) & 0xF)-4] = ((priority << (8 - __NVIC_PRIO_BITS)) & 0xff); } /* set 
1590:CMSIS/CM3/CoreSupport/core_cm3.h ****   else {
1591:CMSIS/CM3/CoreSupport/core_cm3.h ****     NVIC->IP[(uint32_t)(IRQn)] = ((priority << (8 - __NVIC_PRIO_BITS)) & 0xff);    }        /* set 
1592:CMSIS/CM3/CoreSupport/core_cm3.h **** }
1593:CMSIS/CM3/CoreSupport/core_cm3.h **** 
1594:CMSIS/CM3/CoreSupport/core_cm3.h **** /**
1595:CMSIS/CM3/CoreSupport/core_cm3.h ****  * @brief  Read the priority for an interrupt
1596:CMSIS/CM3/CoreSupport/core_cm3.h ****  *
1597:CMSIS/CM3/CoreSupport/core_cm3.h ****  * @param  IRQn      The number of the interrupt for get priority
1598:CMSIS/CM3/CoreSupport/core_cm3.h ****  * @return           The priority for the interrupt
1599:CMSIS/CM3/CoreSupport/core_cm3.h ****  *
1600:CMSIS/CM3/CoreSupport/core_cm3.h ****  * Read the priority for the specified interrupt. The interrupt 
1601:CMSIS/CM3/CoreSupport/core_cm3.h ****  * number can be positive to specify an external (device specific) 
1602:CMSIS/CM3/CoreSupport/core_cm3.h ****  * interrupt, or negative to specify an internal (core) interrupt.
1603:CMSIS/CM3/CoreSupport/core_cm3.h ****  *
1604:CMSIS/CM3/CoreSupport/core_cm3.h ****  * The returned priority value is automatically aligned to the implemented
1605:CMSIS/CM3/CoreSupport/core_cm3.h ****  * priority bits of the microcontroller.
1606:CMSIS/CM3/CoreSupport/core_cm3.h ****  *
1607:CMSIS/CM3/CoreSupport/core_cm3.h ****  * Note: The priority cannot be set for every core interrupt.
1608:CMSIS/CM3/CoreSupport/core_cm3.h ****  */
1609:CMSIS/CM3/CoreSupport/core_cm3.h **** static __INLINE uint32_t NVIC_GetPriority(IRQn_Type IRQn)
1610:CMSIS/CM3/CoreSupport/core_cm3.h **** {
1611:CMSIS/CM3/CoreSupport/core_cm3.h **** 
1612:CMSIS/CM3/CoreSupport/core_cm3.h ****   if(IRQn < 0) {
1613:CMSIS/CM3/CoreSupport/core_cm3.h ****     return((uint32_t)(SCB->SHP[((uint32_t)(IRQn) & 0xF)-4] >> (8 - __NVIC_PRIO_BITS)));  } /* get p
ARM GAS  /tmp/ccaw1hg7.s 			page 30


1614:CMSIS/CM3/CoreSupport/core_cm3.h ****   else {
1615:CMSIS/CM3/CoreSupport/core_cm3.h ****     return((uint32_t)(NVIC->IP[(uint32_t)(IRQn)]           >> (8 - __NVIC_PRIO_BITS)));  } /* get p
1616:CMSIS/CM3/CoreSupport/core_cm3.h **** }
1617:CMSIS/CM3/CoreSupport/core_cm3.h **** 
1618:CMSIS/CM3/CoreSupport/core_cm3.h **** 
1619:CMSIS/CM3/CoreSupport/core_cm3.h **** /**
1620:CMSIS/CM3/CoreSupport/core_cm3.h ****  * @brief  Encode the priority for an interrupt
1621:CMSIS/CM3/CoreSupport/core_cm3.h ****  *
1622:CMSIS/CM3/CoreSupport/core_cm3.h ****  * @param  PriorityGroup    The used priority group
1623:CMSIS/CM3/CoreSupport/core_cm3.h ****  * @param  PreemptPriority  The preemptive priority value (starting from 0)
1624:CMSIS/CM3/CoreSupport/core_cm3.h ****  * @param  SubPriority      The sub priority value (starting from 0)
1625:CMSIS/CM3/CoreSupport/core_cm3.h ****  * @return                  The encoded priority for the interrupt
1626:CMSIS/CM3/CoreSupport/core_cm3.h ****  *
1627:CMSIS/CM3/CoreSupport/core_cm3.h ****  * Encode the priority for an interrupt with the given priority group,
1628:CMSIS/CM3/CoreSupport/core_cm3.h ****  * preemptive priority value and sub priority value.
1629:CMSIS/CM3/CoreSupport/core_cm3.h ****  * In case of a conflict between priority grouping and available
1630:CMSIS/CM3/CoreSupport/core_cm3.h ****  * priority bits (__NVIC_PRIO_BITS) the samllest possible priority group is set.
1631:CMSIS/CM3/CoreSupport/core_cm3.h ****  *
1632:CMSIS/CM3/CoreSupport/core_cm3.h ****  * The returned priority value can be used for NVIC_SetPriority(...) function
1633:CMSIS/CM3/CoreSupport/core_cm3.h ****  */
1634:CMSIS/CM3/CoreSupport/core_cm3.h **** static __INLINE uint32_t NVIC_EncodePriority (uint32_t PriorityGroup, uint32_t PreemptPriority, uin
1635:CMSIS/CM3/CoreSupport/core_cm3.h **** {
1636:CMSIS/CM3/CoreSupport/core_cm3.h ****   uint32_t PriorityGroupTmp = (PriorityGroup & 0x07);          /* only values 0..7 are used        
1637:CMSIS/CM3/CoreSupport/core_cm3.h ****   uint32_t PreemptPriorityBits;
1638:CMSIS/CM3/CoreSupport/core_cm3.h ****   uint32_t SubPriorityBits;
1639:CMSIS/CM3/CoreSupport/core_cm3.h **** 
1640:CMSIS/CM3/CoreSupport/core_cm3.h ****   PreemptPriorityBits = ((7 - PriorityGroupTmp) > __NVIC_PRIO_BITS) ? __NVIC_PRIO_BITS : 7 - Priori
1641:CMSIS/CM3/CoreSupport/core_cm3.h ****   SubPriorityBits     = ((PriorityGroupTmp + __NVIC_PRIO_BITS) < 7) ? 0 : PriorityGroupTmp - 7 + __
1642:CMSIS/CM3/CoreSupport/core_cm3.h ****  
1643:CMSIS/CM3/CoreSupport/core_cm3.h ****   return (
1644:CMSIS/CM3/CoreSupport/core_cm3.h ****            ((PreemptPriority & ((1 << (PreemptPriorityBits)) - 1)) << SubPriorityBits) |
1645:CMSIS/CM3/CoreSupport/core_cm3.h ****            ((SubPriority     & ((1 << (SubPriorityBits    )) - 1)))
1646:CMSIS/CM3/CoreSupport/core_cm3.h ****          );
1647:CMSIS/CM3/CoreSupport/core_cm3.h **** }
1648:CMSIS/CM3/CoreSupport/core_cm3.h **** 
1649:CMSIS/CM3/CoreSupport/core_cm3.h **** 
1650:CMSIS/CM3/CoreSupport/core_cm3.h **** /**
1651:CMSIS/CM3/CoreSupport/core_cm3.h ****  * @brief  Decode the priority of an interrupt
1652:CMSIS/CM3/CoreSupport/core_cm3.h ****  *
1653:CMSIS/CM3/CoreSupport/core_cm3.h ****  * @param  Priority           The priority for the interrupt
1654:CMSIS/CM3/CoreSupport/core_cm3.h ****  * @param  PriorityGroup      The used priority group
1655:CMSIS/CM3/CoreSupport/core_cm3.h ****  * @param  pPreemptPriority   The preemptive priority value (starting from 0)
1656:CMSIS/CM3/CoreSupport/core_cm3.h ****  * @param  pSubPriority       The sub priority value (starting from 0)
1657:CMSIS/CM3/CoreSupport/core_cm3.h ****  *
1658:CMSIS/CM3/CoreSupport/core_cm3.h ****  * Decode an interrupt priority value with the given priority group to 
1659:CMSIS/CM3/CoreSupport/core_cm3.h ****  * preemptive priority value and sub priority value.
1660:CMSIS/CM3/CoreSupport/core_cm3.h ****  * In case of a conflict between priority grouping and available
1661:CMSIS/CM3/CoreSupport/core_cm3.h ****  * priority bits (__NVIC_PRIO_BITS) the samllest possible priority group is set.
1662:CMSIS/CM3/CoreSupport/core_cm3.h ****  *
1663:CMSIS/CM3/CoreSupport/core_cm3.h ****  * The priority value can be retrieved with NVIC_GetPriority(...) function
1664:CMSIS/CM3/CoreSupport/core_cm3.h ****  */
1665:CMSIS/CM3/CoreSupport/core_cm3.h **** static __INLINE void NVIC_DecodePriority (uint32_t Priority, uint32_t PriorityGroup, uint32_t* pPre
1666:CMSIS/CM3/CoreSupport/core_cm3.h **** {
1667:CMSIS/CM3/CoreSupport/core_cm3.h ****   uint32_t PriorityGroupTmp = (PriorityGroup & 0x07);          /* only values 0..7 are used        
1668:CMSIS/CM3/CoreSupport/core_cm3.h ****   uint32_t PreemptPriorityBits;
1669:CMSIS/CM3/CoreSupport/core_cm3.h ****   uint32_t SubPriorityBits;
1670:CMSIS/CM3/CoreSupport/core_cm3.h **** 
ARM GAS  /tmp/ccaw1hg7.s 			page 31


1671:CMSIS/CM3/CoreSupport/core_cm3.h ****   PreemptPriorityBits = ((7 - PriorityGroupTmp) > __NVIC_PRIO_BITS) ? __NVIC_PRIO_BITS : 7 - Priori
1672:CMSIS/CM3/CoreSupport/core_cm3.h ****   SubPriorityBits     = ((PriorityGroupTmp + __NVIC_PRIO_BITS) < 7) ? 0 : PriorityGroupTmp - 7 + __
1673:CMSIS/CM3/CoreSupport/core_cm3.h ****   
1674:CMSIS/CM3/CoreSupport/core_cm3.h ****   *pPreemptPriority = (Priority >> SubPriorityBits) & ((1 << (PreemptPriorityBits)) - 1);
1675:CMSIS/CM3/CoreSupport/core_cm3.h ****   *pSubPriority     = (Priority                   ) & ((1 << (SubPriorityBits    )) - 1);
1676:CMSIS/CM3/CoreSupport/core_cm3.h **** }
1677:CMSIS/CM3/CoreSupport/core_cm3.h **** 
1678:CMSIS/CM3/CoreSupport/core_cm3.h **** 
1679:CMSIS/CM3/CoreSupport/core_cm3.h **** 
1680:CMSIS/CM3/CoreSupport/core_cm3.h **** /* ##################################    SysTick function  ########################################
1681:CMSIS/CM3/CoreSupport/core_cm3.h **** 
1682:CMSIS/CM3/CoreSupport/core_cm3.h **** #if (!defined (__Vendor_SysTickConfig)) || (__Vendor_SysTickConfig == 0)
1683:CMSIS/CM3/CoreSupport/core_cm3.h **** 
1684:CMSIS/CM3/CoreSupport/core_cm3.h **** /**
1685:CMSIS/CM3/CoreSupport/core_cm3.h ****  * @brief  Initialize and start the SysTick counter and its interrupt.
1686:CMSIS/CM3/CoreSupport/core_cm3.h ****  *
1687:CMSIS/CM3/CoreSupport/core_cm3.h ****  * @param   ticks   number of ticks between two interrupts
1688:CMSIS/CM3/CoreSupport/core_cm3.h ****  * @return  1 = failed, 0 = successful
1689:CMSIS/CM3/CoreSupport/core_cm3.h ****  *
1690:CMSIS/CM3/CoreSupport/core_cm3.h ****  * Initialise the system tick timer and its interrupt and start the
1691:CMSIS/CM3/CoreSupport/core_cm3.h ****  * system tick timer / counter in free running mode to generate 
1692:CMSIS/CM3/CoreSupport/core_cm3.h ****  * periodical interrupts.
1693:CMSIS/CM3/CoreSupport/core_cm3.h ****  */
1694:CMSIS/CM3/CoreSupport/core_cm3.h **** static __INLINE uint32_t SysTick_Config(uint32_t ticks)
1695:CMSIS/CM3/CoreSupport/core_cm3.h **** { 
1696:CMSIS/CM3/CoreSupport/core_cm3.h ****   if (ticks > SysTick_LOAD_RELOAD_Msk)  return (1);            /* Reload value impossible */
1697:CMSIS/CM3/CoreSupport/core_cm3.h ****                                                                
1698:CMSIS/CM3/CoreSupport/core_cm3.h ****   SysTick->LOAD  = (ticks & SysTick_LOAD_RELOAD_Msk) - 1;      /* set reload register */
  36              		.loc 2 1698 0
  37 0000 054B     		ldr	r3, .L2
  38 0002 4722     		movs	r2, #71
  39 0004 5A60     		str	r2, [r3, #4]
  40              	.LVL1:
  41              	.LBB10:
  42              	.LBB11:
1589:CMSIS/CM3/CoreSupport/core_cm3.h ****   else {
  43              		.loc 2 1589 0
  44 0006 F021     		movs	r1, #240
  45 0008 044A     		ldr	r2, .L2+4
  46 000a 82F82310 		strb	r1, [r2, #35]
  47              	.LBE11:
  48              	.LBE10:
1699:CMSIS/CM3/CoreSupport/core_cm3.h ****   NVIC_SetPriority (SysTick_IRQn, (1<<__NVIC_PRIO_BITS) - 1);  /* set Priority for Cortex-M0 System
1700:CMSIS/CM3/CoreSupport/core_cm3.h ****   SysTick->VAL   = 0;                                          /* Load the SysTick Counter Value */
  49              		.loc 2 1700 0
  50 000e 0022     		movs	r2, #0
  51 0010 9A60     		str	r2, [r3, #8]
1701:CMSIS/CM3/CoreSupport/core_cm3.h ****   SysTick->CTRL  = SysTick_CTRL_CLKSOURCE_Msk | 
  52              		.loc 2 1701 0
  53 0012 0722     		movs	r2, #7
  54 0014 1A60     		str	r2, [r3]
  55 0016 7047     		bx	lr
  56              	.L3:
  57              		.align	2
  58              	.L2:
  59 0018 10E000E0 		.word	-536813552
  60 001c 00ED00E0 		.word	-536810240
ARM GAS  /tmp/ccaw1hg7.s 			page 32


  61              	.LBE9:
  62              	.LBE8:
  63              		.cfi_endproc
  64              	.LFE29:
  66              		.section	.text.SysTick_Handler,"ax",%progbits
  67              		.align	2
  68              		.global	SysTick_Handler
  69              		.thumb
  70              		.thumb_func
  72              	SysTick_Handler:
  73              	.LFB30:
   7:DRIVER/src/systick.c ****     //72000*1/72000000= 1us
   8:DRIVER/src/systick.c ****     while(SysTick_Config(72) == 1);
   9:DRIVER/src/systick.c **** }
  10:DRIVER/src/systick.c **** 
  11:DRIVER/src/systick.c **** void SysTick_Handler(void)
  12:DRIVER/src/systick.c **** {
  74              		.loc 1 12 0
  75              		.cfi_startproc
  76              		@ args = 0, pretend = 0, frame = 0
  77              		@ frame_needed = 0, uses_anonymous_args = 0
  78              		@ link register save eliminated.
  13:DRIVER/src/systick.c ****     if(delay_num-- != 0);
  79              		.loc 1 13 0
  80 0000 024A     		ldr	r2, .L5
  81 0002 1368     		ldr	r3, [r2]
  82 0004 013B     		subs	r3, r3, #1
  83 0006 1360     		str	r3, [r2]
  84 0008 7047     		bx	lr
  85              	.L6:
  86 000a 00BF     		.align	2
  87              	.L5:
  88 000c 00000000 		.word	delay_num
  89              		.cfi_endproc
  90              	.LFE30:
  92              		.section	.text.delay_ms,"ax",%progbits
  93              		.align	2
  94              		.global	delay_ms
  95              		.thumb
  96              		.thumb_func
  98              	delay_ms:
  99              	.LFB31:
  14:DRIVER/src/systick.c **** }
  15:DRIVER/src/systick.c **** 
  16:DRIVER/src/systick.c **** void delay_ms(u16 ms)
  17:DRIVER/src/systick.c **** {
 100              		.loc 1 17 0
 101              		.cfi_startproc
 102              		@ args = 0, pretend = 0, frame = 0
 103              		@ frame_needed = 0, uses_anonymous_args = 0
 104              		@ link register save eliminated.
 105              	.LVL2:
  18:DRIVER/src/systick.c ****   delay_num = ms*1000;
 106              		.loc 1 18 0
 107 0000 4FF47A73 		mov	r3, #1000
 108 0004 03FB00F0 		mul	r0, r3, r0
 109              	.LVL3:
ARM GAS  /tmp/ccaw1hg7.s 			page 33


 110 0008 034B     		ldr	r3, .L9
 111 000a 1860     		str	r0, [r3]
 112              	.L8:
  19:DRIVER/src/systick.c ****   while(delay_num != 0);
 113              		.loc 1 19 0 discriminator 1
 114 000c 024B     		ldr	r3, .L9
 115 000e 1B68     		ldr	r3, [r3]
 116 0010 002B     		cmp	r3, #0
 117 0012 FBD1     		bne	.L8
  20:DRIVER/src/systick.c **** }
 118              		.loc 1 20 0
 119 0014 7047     		bx	lr
 120              	.L10:
 121 0016 00BF     		.align	2
 122              	.L9:
 123 0018 00000000 		.word	delay_num
 124              		.cfi_endproc
 125              	.LFE31:
 127              		.section	.text.delay_us,"ax",%progbits
 128              		.align	2
 129              		.global	delay_us
 130              		.thumb
 131              		.thumb_func
 133              	delay_us:
 134              	.LFB32:
  21:DRIVER/src/systick.c **** 
  22:DRIVER/src/systick.c **** 
  23:DRIVER/src/systick.c **** void delay_us(u16 us)
  24:DRIVER/src/systick.c **** {
 135              		.loc 1 24 0
 136              		.cfi_startproc
 137              		@ args = 0, pretend = 0, frame = 0
 138              		@ frame_needed = 0, uses_anonymous_args = 0
 139              		@ link register save eliminated.
 140              	.LVL4:
  25:DRIVER/src/systick.c ****   delay_num = us;
 141              		.loc 1 25 0
 142 0000 034B     		ldr	r3, .L13
 143 0002 1860     		str	r0, [r3]
 144              	.L12:
  26:DRIVER/src/systick.c ****   while(delay_num != 0);
 145              		.loc 1 26 0 discriminator 1
 146 0004 024B     		ldr	r3, .L13
 147 0006 1B68     		ldr	r3, [r3]
 148 0008 002B     		cmp	r3, #0
 149 000a FBD1     		bne	.L12
  27:DRIVER/src/systick.c **** }...
 150              		.loc 1 27 0
 151 000c 7047     		bx	lr
 152              	.L14:
 153 000e 00BF     		.align	2
 154              	.L13:
 155 0010 00000000 		.word	delay_num
 156              		.cfi_endproc
 157              	.LFE32:
 159              		.comm	delay_num,4,4
 160              		.text
ARM GAS  /tmp/ccaw1hg7.s 			page 34


 161              	.Letext0:
 162              		.file 3 "CMSIS/DeviceSupport/ST/STM32F10x/stm32f10x.h"
 163              		.file 4 "/usr/include/newlib/machine/_default_types.h"
 164              		.file 5 "/usr/include/newlib/sys/_stdint.h"
ARM GAS  /tmp/ccaw1hg7.s 			page 35


DEFINED SYMBOLS
                            *ABS*:0000000000000000 systick.c
     /tmp/ccaw1hg7.s:19     .text.delay_config:0000000000000000 $t
     /tmp/ccaw1hg7.s:24     .text.delay_config:0000000000000000 delay_config
     /tmp/ccaw1hg7.s:59     .text.delay_config:0000000000000018 $d
     /tmp/ccaw1hg7.s:67     .text.SysTick_Handler:0000000000000000 $t
     /tmp/ccaw1hg7.s:72     .text.SysTick_Handler:0000000000000000 SysTick_Handler
     /tmp/ccaw1hg7.s:88     .text.SysTick_Handler:000000000000000c $d
                            *COM*:0000000000000004 delay_num
     /tmp/ccaw1hg7.s:93     .text.delay_ms:0000000000000000 $t
     /tmp/ccaw1hg7.s:98     .text.delay_ms:0000000000000000 delay_ms
     /tmp/ccaw1hg7.s:123    .text.delay_ms:0000000000000018 $d
     /tmp/ccaw1hg7.s:128    .text.delay_us:0000000000000000 $t
     /tmp/ccaw1hg7.s:133    .text.delay_us:0000000000000000 delay_us
     /tmp/ccaw1hg7.s:155    .text.delay_us:0000000000000010 $d
                     .debug_frame:0000000000000010 $d

NO UNDEFINED SYMBOLS
